
text.elf:     file format elf32-littlearm

Disassembly of section .text:

30000000 <_start>:
30000000:	ea000026 	b	300000a0 <reset>
30000004:	e59ff114 	ldr	pc, [pc, #276]	; 30000120 <halt+0x4>
30000008:	e59ff114 	ldr	pc, [pc, #276]	; 30000124 <halt+0x8>
3000000c:	ea000042 	b	3000011c <halt>
30000010:	ea000041 	b	3000011c <halt>
30000014:	ea000040 	b	3000011c <halt>
30000018:	e59ff108 	ldr	pc, [pc, #264]	; 30000128 <halt+0xc>
3000001c:	ea00003e 	b	3000011c <halt>

30000020 <do_irq>:
30000020:	e59fd104 	ldr	sp, [pc, #260]	; 3000012c <halt+0x10>
30000024:	e24ee004 	sub	lr, lr, #4	; 0x4
30000028:	e92d5fff 	push	{r0, r1, r2, r3, r4, r5, r6, r7, r8, r9, sl, fp, ip, lr}
3000002c:	eb0012a3 	bl	30004ac0 <handle_irq>
30000030:	e8fd9fff 	ldm	sp!, {r0, r1, r2, r3, r4, r5, r6, r7, r8, r9, sl, fp, ip, pc}^

30000034 <do_swi>:
30000034:	e59fd0f4 	ldr	sp, [pc, #244]	; 30000130 <halt+0x14>
30000038:	e92d5fff 	push	{r0, r1, r2, r3, r4, r5, r6, r7, r8, r9, sl, fp, ip, lr}
3000003c:	e1a0400e 	mov	r4, lr
30000040:	e10f0000 	mrs	r0, CPSR
30000044:	e59f10e8 	ldr	r1, [pc, #232]	; 30000134 <halt+0x18>
30000048:	eb001167 	bl	300045ec <printException>
3000004c:	e2440004 	sub	r0, r4, #4	; 0x4
30000050:	eb001172 	bl	30004620 <printSWIVal>
30000054:	e8fd9fff 	ldm	sp!, {r0, r1, r2, r3, r4, r5, r6, r7, r8, r9, sl, fp, ip, pc}^

30000058 <swi_string>:
30000058:	735f6f64 	cmpvc	pc, #400	; 0x190
3000005c:	21206376 	teqcs	r0, r6, ror r3
30000060:	21212121 	teqcs	r1, r1, lsr #2
30000064:	00212121 	eoreq	r2, r1, r1, lsr #2
30000068:	e1a00000 	nop			(mov r0,r0)
3000006c:	e1a00000 	nop			(mov r0,r0)

30000070 <do_und>:
30000070:	e59fd0c0 	ldr	sp, [pc, #192]	; 30000138 <halt+0x1c>
30000074:	e92d5fff 	push	{r0, r1, r2, r3, r4, r5, r6, r7, r8, r9, sl, fp, ip, lr}
30000078:	e10f0000 	mrs	r0, CPSR
3000007c:	e59f10b8 	ldr	r1, [pc, #184]	; 3000013c <halt+0x20>
30000080:	eb001159 	bl	300045ec <printException>
30000084:	e8fd9fff 	ldm	sp!, {r0, r1, r2, r3, r4, r5, r6, r7, r8, r9, sl, fp, ip, pc}^

30000088 <und_string>:
30000088:	755f6f64 	ldrbvc	r6, [pc, #-3940]	; 2ffff12c <code_start-0xed4>
3000008c:	2120646e 	teqcs	r0, lr, ror #8
30000090:	21212121 	teqcs	r1, r1, lsr #2
30000094:	00212121 	eoreq	r2, r1, r1, lsr #2
30000098:	e1a00000 	nop			(mov r0,r0)
3000009c:	e1a00000 	nop			(mov r0,r0)

300000a0 <reset>:
300000a0:	e3a00453 	mov	r0, #1392508928	; 0x53000000
300000a4:	e3a01000 	mov	r1, #0	; 0x0
300000a8:	e5801000 	str	r1, [r0]
300000ac:	e3a00313 	mov	r0, #1275068416	; 0x4c000000
300000b0:	e3e01000 	mvn	r1, #0	; 0x0
300000b4:	e5801000 	str	r1, [r0]
300000b8:	e59f0080 	ldr	r0, [pc, #128]	; 30000140 <halt+0x24>
300000bc:	e3a01005 	mov	r1, #5	; 0x5
300000c0:	e5801000 	str	r1, [r0]
300000c4:	ee110f10 	mrc	15, 0, r0, cr1, cr0, {0}
300000c8:	e3800103 	orr	r0, r0, #-1073741824	; 0xc0000000
300000cc:	ee010f10 	mcr	15, 0, r0, cr1, cr0, {0}
300000d0:	e59f006c 	ldr	r0, [pc, #108]	; 30000144 <halt+0x28>
300000d4:	e59f106c 	ldr	r1, [pc, #108]	; 30000148 <halt+0x2c>
300000d8:	e5801000 	str	r1, [r0]
300000dc:	e3a01000 	mov	r1, #0	; 0x0
300000e0:	e5910000 	ldr	r0, [r1]
300000e4:	e5811000 	str	r1, [r1]
300000e8:	e5912000 	ldr	r2, [r1]
300000ec:	e1510002 	cmp	r1, r2
300000f0:	e59fd054 	ldr	sp, [pc, #84]	; 3000014c <halt+0x30>
300000f4:	03a0da01 	moveq	sp, #4096	; 0x1000
300000f8:	05810000 	streq	r0, [r1]
300000fc:	ee110f10 	mrc	15, 0, r0, cr1, cr0, {0}
30000100:	e3800a01 	orr	r0, r0, #4096	; 0x1000
30000104:	ee010f10 	mcr	15, 0, r0, cr1, cr0, {0}
30000108:	eb000033 	bl	300001dc <relocation>
3000010c:	e59fd01c 	ldr	sp, [pc, #28]	; 30000130 <halt+0x14>
30000110:	e59ff038 	ldr	pc, [pc, #56]	; 30000150 <halt+0x34>

30000114 <next>:
30000114:	eb000068 	bl	300002bc <init>
30000118:	eb0013a6 	bl	30004fb8 <main>

3000011c <halt>:
3000011c:	eafffffe 	b	3000011c <halt>
30000120:	30000070 	.word	0x30000070
30000124:	30000034 	.word	0x30000034
30000128:	30000020 	.word	0x30000020
3000012c:	33ffe000 	.word	0x33ffe000
30000130:	33ffd000 	.word	0x33ffd000
30000134:	30000058 	.word	0x30000058
30000138:	33ffa000 	.word	0x33ffa000
3000013c:	30000088 	.word	0x30000088
30000140:	4c000014 	.word	0x4c000014
30000144:	4c000004 	.word	0x4c000004
30000148:	0005c011 	.word	0x0005c011
3000014c:	40001000 	.word	0x40001000
30000150:	30000114 	.word	0x30000114
30000154:	e1a00000 	.word	0xe1a00000
30000158:	e1a00000 	.word	0xe1a00000
3000015c:	e1a00000 	.word	0xe1a00000

30000160 <nand_boot>:
30000160:	e52db004 	push	{fp}		; (str fp, [sp, #-4]!)
30000164:	e28db000 	add	fp, sp, #0	; 0x0
30000168:	e24dd014 	sub	sp, sp, #20	; 0x14
3000016c:	e3a03010 	mov	r3, #16	; 0x10
30000170:	e50b300c 	str	r3, [fp, #-12]
30000174:	e51b300c 	ldr	r3, [fp, #-12]
30000178:	e5933000 	ldr	r3, [r3]
3000017c:	e50b3008 	str	r3, [fp, #-8]
30000180:	e51b300c 	ldr	r3, [fp, #-12]
30000184:	e5933000 	ldr	r3, [r3]
30000188:	e2832001 	add	r2, r3, #1	; 0x1
3000018c:	e51b300c 	ldr	r3, [fp, #-12]
30000190:	e5832000 	str	r2, [r3]
30000194:	e51b300c 	ldr	r3, [fp, #-12]
30000198:	e5932000 	ldr	r2, [r3]
3000019c:	e51b3008 	ldr	r3, [fp, #-8]
300001a0:	e1520003 	cmp	r2, r3
300001a4:	1a000002 	bne	300001b4 <nand_boot+0x54>
300001a8:	e3a03000 	mov	r3, #0	; 0x0
300001ac:	e50b3010 	str	r3, [fp, #-16]
300001b0:	ea000004 	b	300001c8 <nand_boot+0x68>
300001b4:	e51b200c 	ldr	r2, [fp, #-12]
300001b8:	e51b3008 	ldr	r3, [fp, #-8]
300001bc:	e5823000 	str	r3, [r2]
300001c0:	e3a03001 	mov	r3, #1	; 0x1
300001c4:	e50b3010 	str	r3, [fp, #-16]
300001c8:	e51b3010 	ldr	r3, [fp, #-16]
300001cc:	e1a00003 	mov	r0, r3
300001d0:	e28bd000 	add	sp, fp, #0	; 0x0
300001d4:	e8bd0800 	pop	{fp}
300001d8:	e12fff1e 	bx	lr

300001dc <relocation>:
300001dc:	e92d4800 	push	{fp, lr}
300001e0:	e28db004 	add	fp, sp, #4	; 0x4
300001e4:	e24dd010 	sub	sp, sp, #16	; 0x10
300001e8:	e3a03000 	mov	r3, #0	; 0x0
300001ec:	e50b3014 	str	r3, [fp, #-20]
300001f0:	e59f30b8 	ldr	r3, [pc, #184]	; 300002b0 <relocation+0xd4>
300001f4:	e50b3010 	str	r3, [fp, #-16]
300001f8:	e59f30b4 	ldr	r3, [pc, #180]	; 300002b4 <relocation+0xd8>
300001fc:	e50b300c 	str	r3, [fp, #-12]
30000200:	e59f30b0 	ldr	r3, [pc, #176]	; 300002b8 <relocation+0xdc>
30000204:	e50b3008 	str	r3, [fp, #-8]
30000208:	eb000306 	bl	30000e28 <sdram_config>
3000020c:	eb000044 	bl	30000324 <nand_init>
30000210:	ebffffd2 	bl	30000160 <nand_boot>
30000214:	e1a03000 	mov	r3, r0
30000218:	e3530000 	cmp	r3, #0	; 0x0
3000021c:	0a000011 	beq	30000268 <relocation+0x8c>
30000220:	e51b1010 	ldr	r1, [fp, #-16]
30000224:	e51b200c 	ldr	r2, [fp, #-12]
30000228:	e51b3010 	ldr	r3, [fp, #-16]
3000022c:	e0633002 	rsb	r3, r3, r2
30000230:	e3a00000 	mov	r0, #0	; 0x0
30000234:	e1a02003 	mov	r2, r3
30000238:	eb000102 	bl	30000648 <nand_read>
3000023c:	ea000014 	b	30000294 <relocation+0xb8>
30000240:	e51b3014 	ldr	r3, [fp, #-20]
30000244:	e5932000 	ldr	r2, [r3]
30000248:	e51b3010 	ldr	r3, [fp, #-16]
3000024c:	e5832000 	str	r2, [r3]
30000250:	e51b3010 	ldr	r3, [fp, #-16]
30000254:	e2833004 	add	r3, r3, #4	; 0x4
30000258:	e50b3010 	str	r3, [fp, #-16]
3000025c:	e51b3014 	ldr	r3, [fp, #-20]
30000260:	e2833004 	add	r3, r3, #4	; 0x4
30000264:	e50b3014 	str	r3, [fp, #-20]
30000268:	e51b2010 	ldr	r2, [fp, #-16]
3000026c:	e51b300c 	ldr	r3, [fp, #-12]
30000270:	e1520003 	cmp	r2, r3
30000274:	3afffff1 	bcc	30000240 <relocation+0x64>
30000278:	ea000005 	b	30000294 <relocation+0xb8>
3000027c:	e51b200c 	ldr	r2, [fp, #-12]
30000280:	e3a03000 	mov	r3, #0	; 0x0
30000284:	e5823000 	str	r3, [r2]
30000288:	e51b300c 	ldr	r3, [fp, #-12]
3000028c:	e2833004 	add	r3, r3, #4	; 0x4
30000290:	e50b300c 	str	r3, [fp, #-12]
30000294:	e51b200c 	ldr	r2, [fp, #-12]
30000298:	e51b3008 	ldr	r3, [fp, #-8]
3000029c:	e1520003 	cmp	r2, r3
300002a0:	3afffff5 	bcc	3000027c <relocation+0xa0>
300002a4:	e24bd004 	sub	sp, fp, #4	; 0x4
300002a8:	e8bd4800 	pop	{fp, lr}
300002ac:	e12fff1e 	bx	lr
300002b0:	30000000 	.word	0x30000000
300002b4:	300068cc 	.word	0x300068cc
300002b8:	30006984 	.word	0x30006984

300002bc <init>:
300002bc:	e92d4800 	push	{fp, lr}
300002c0:	e28db004 	add	fp, sp, #4	; 0x4
300002c4:	e24dd008 	sub	sp, sp, #8	; 0x8
300002c8:	eb000591 	bl	30001914 <inierript_config>
300002cc:	eb000d3d 	bl	300037c8 <uart0_config>
300002d0:	eb000ddf 	bl	30003a54 <led_config>
300002d4:	eb0005b2 	bl	300019a4 <key_config>
300002d8:	eb000e00 	bl	30003ae0 <timer0_config>
300002dc:	eb000e2c 	bl	30003b94 <timer1_config>
300002e0:	e3a00000 	mov	r0, #0	; 0x0
300002e4:	eb000db0 	bl	300039ac <adc_config>
300002e8:	e24bd004 	sub	sp, fp, #4	; 0x4
300002ec:	e8bd4800 	pop	{fp, lr}
300002f0:	e12fff1e 	bx	lr

300002f4 <wait_ready>:
300002f4:	e52db004 	push	{fp}		; (str fp, [sp, #-4]!)
300002f8:	e28db000 	add	fp, sp, #0	; 0x0
300002fc:	e3a0344e 	mov	r3, #1308622848	; 0x4e000000
30000300:	e2833020 	add	r3, r3, #32	; 0x20
30000304:	e5d33000 	ldrb	r3, [r3]
30000308:	e20330ff 	and	r3, r3, #255	; 0xff
3000030c:	e2033001 	and	r3, r3, #1	; 0x1
30000310:	e3530000 	cmp	r3, #0	; 0x0
30000314:	0afffff8 	beq	300002fc <wait_ready+0x8>
30000318:	e28bd000 	add	sp, fp, #0	; 0x0
3000031c:	e8bd0800 	pop	{fp}
30000320:	e12fff1e 	bx	lr

30000324 <nand_init>:
30000324:	e52db004 	push	{fp}		; (str fp, [sp, #-4]!)
30000328:	e28db000 	add	fp, sp, #0	; 0x0
3000032c:	e3a0244e 	mov	r2, #1308622848	; 0x4e000000
30000330:	e3a03c01 	mov	r3, #256	; 0x100
30000334:	e5823000 	str	r3, [r2]
30000338:	e3a0344e 	mov	r3, #1308622848	; 0x4e000000
3000033c:	e2833004 	add	r3, r3, #4	; 0x4
30000340:	e3a02013 	mov	r2, #19	; 0x13
30000344:	e5832000 	str	r2, [r3]
30000348:	e28bd000 	add	sp, fp, #0	; 0x0
3000034c:	e8bd0800 	pop	{fp}
30000350:	e12fff1e 	bx	lr

30000354 <nand_select>:
30000354:	e52db004 	push	{fp}		; (str fp, [sp, #-4]!)
30000358:	e28db000 	add	fp, sp, #0	; 0x0
3000035c:	e3a0244e 	mov	r2, #1308622848	; 0x4e000000
30000360:	e2822004 	add	r2, r2, #4	; 0x4
30000364:	e3a0344e 	mov	r3, #1308622848	; 0x4e000000
30000368:	e2833004 	add	r3, r3, #4	; 0x4
3000036c:	e5933000 	ldr	r3, [r3]
30000370:	e3c33002 	bic	r3, r3, #2	; 0x2
30000374:	e5823000 	str	r3, [r2]
30000378:	e28bd000 	add	sp, fp, #0	; 0x0
3000037c:	e8bd0800 	pop	{fp}
30000380:	e12fff1e 	bx	lr

30000384 <nand_deselect>:
30000384:	e52db004 	push	{fp}		; (str fp, [sp, #-4]!)
30000388:	e28db000 	add	fp, sp, #0	; 0x0
3000038c:	e3a0244e 	mov	r2, #1308622848	; 0x4e000000
30000390:	e2822004 	add	r2, r2, #4	; 0x4
30000394:	e3a0344e 	mov	r3, #1308622848	; 0x4e000000
30000398:	e2833004 	add	r3, r3, #4	; 0x4
3000039c:	e5933000 	ldr	r3, [r3]
300003a0:	e3833002 	orr	r3, r3, #2	; 0x2
300003a4:	e5823000 	str	r3, [r2]
300003a8:	e28bd000 	add	sp, fp, #0	; 0x0
300003ac:	e8bd0800 	pop	{fp}
300003b0:	e12fff1e 	bx	lr

300003b4 <nand_cmd>:
300003b4:	e52db004 	push	{fp}		; (str fp, [sp, #-4]!)
300003b8:	e28db000 	add	fp, sp, #0	; 0x0
300003bc:	e24dd014 	sub	sp, sp, #20	; 0x14
300003c0:	e1a03000 	mov	r3, r0
300003c4:	e54b300d 	strb	r3, [fp, #-13]
300003c8:	e3a0344e 	mov	r3, #1308622848	; 0x4e000000
300003cc:	e2833008 	add	r3, r3, #8	; 0x8
300003d0:	e55b200d 	ldrb	r2, [fp, #-13]
300003d4:	e5c32000 	strb	r2, [r3]
300003d8:	e3a03000 	mov	r3, #0	; 0x0
300003dc:	e50b3008 	str	r3, [fp, #-8]
300003e0:	ea000002 	b	300003f0 <nand_cmd+0x3c>
300003e4:	e51b3008 	ldr	r3, [fp, #-8]
300003e8:	e2833001 	add	r3, r3, #1	; 0x1
300003ec:	e50b3008 	str	r3, [fp, #-8]
300003f0:	e51b3008 	ldr	r3, [fp, #-8]
300003f4:	e3530009 	cmp	r3, #9	; 0x9
300003f8:	dafffff9 	ble	300003e4 <nand_cmd+0x30>
300003fc:	e28bd000 	add	sp, fp, #0	; 0x0
30000400:	e8bd0800 	pop	{fp}
30000404:	e12fff1e 	bx	lr

30000408 <nand_addr_byte>:
30000408:	e52db004 	push	{fp}		; (str fp, [sp, #-4]!)
3000040c:	e28db000 	add	fp, sp, #0	; 0x0
30000410:	e24dd014 	sub	sp, sp, #20	; 0x14
30000414:	e1a03000 	mov	r3, r0
30000418:	e54b300d 	strb	r3, [fp, #-13]
3000041c:	e3a0344e 	mov	r3, #1308622848	; 0x4e000000
30000420:	e283300c 	add	r3, r3, #12	; 0xc
30000424:	e55b200d 	ldrb	r2, [fp, #-13]
30000428:	e5c32000 	strb	r2, [r3]
3000042c:	e3a03000 	mov	r3, #0	; 0x0
30000430:	e50b3008 	str	r3, [fp, #-8]
30000434:	ea000002 	b	30000444 <nand_addr_byte+0x3c>
30000438:	e51b3008 	ldr	r3, [fp, #-8]
3000043c:	e2833001 	add	r3, r3, #1	; 0x1
30000440:	e50b3008 	str	r3, [fp, #-8]
30000444:	e51b3008 	ldr	r3, [fp, #-8]
30000448:	e3530009 	cmp	r3, #9	; 0x9
3000044c:	dafffff9 	ble	30000438 <nand_addr_byte+0x30>
30000450:	e28bd000 	add	sp, fp, #0	; 0x0
30000454:	e8bd0800 	pop	{fp}
30000458:	e12fff1e 	bx	lr

3000045c <nand_data>:
3000045c:	e52db004 	push	{fp}		; (str fp, [sp, #-4]!)
30000460:	e28db000 	add	fp, sp, #0	; 0x0
30000464:	e3a0344e 	mov	r3, #1308622848	; 0x4e000000
30000468:	e2833010 	add	r3, r3, #16	; 0x10
3000046c:	e5d33000 	ldrb	r3, [r3]
30000470:	e20330ff 	and	r3, r3, #255	; 0xff
30000474:	e1a00003 	mov	r0, r3
30000478:	e28bd000 	add	sp, fp, #0	; 0x0
3000047c:	e8bd0800 	pop	{fp}
30000480:	e12fff1e 	bx	lr

30000484 <nand_w_data>:
30000484:	e52db004 	push	{fp}		; (str fp, [sp, #-4]!)
30000488:	e28db000 	add	fp, sp, #0	; 0x0
3000048c:	e24dd00c 	sub	sp, sp, #12	; 0xc
30000490:	e1a03000 	mov	r3, r0
30000494:	e54b3005 	strb	r3, [fp, #-5]
30000498:	e3a0344e 	mov	r3, #1308622848	; 0x4e000000
3000049c:	e2833010 	add	r3, r3, #16	; 0x10
300004a0:	e55b2005 	ldrb	r2, [fp, #-5]
300004a4:	e5c32000 	strb	r2, [r3]
300004a8:	e28bd000 	add	sp, fp, #0	; 0x0
300004ac:	e8bd0800 	pop	{fp}
300004b0:	e12fff1e 	bx	lr

300004b4 <nand_chip_id>:
300004b4:	e92d4800 	push	{fp, lr}
300004b8:	e28db004 	add	fp, sp, #4	; 0x4
300004bc:	e24dd010 	sub	sp, sp, #16	; 0x10
300004c0:	e24b2009 	sub	r2, fp, #9	; 0x9
300004c4:	e50b2010 	str	r2, [fp, #-16]
300004c8:	e3a03000 	mov	r3, #0	; 0x0
300004cc:	e51b2010 	ldr	r2, [fp, #-16]
300004d0:	e5c23000 	strb	r3, [r2]
300004d4:	e51b3010 	ldr	r3, [fp, #-16]
300004d8:	e2833001 	add	r3, r3, #1	; 0x1
300004dc:	e50b3010 	str	r3, [fp, #-16]
300004e0:	e3a03000 	mov	r3, #0	; 0x0
300004e4:	e51b2010 	ldr	r2, [fp, #-16]
300004e8:	e5c23000 	strb	r3, [r2]
300004ec:	e51b3010 	ldr	r3, [fp, #-16]
300004f0:	e2833001 	add	r3, r3, #1	; 0x1
300004f4:	e50b3010 	str	r3, [fp, #-16]
300004f8:	e3a03000 	mov	r3, #0	; 0x0
300004fc:	e51b2010 	ldr	r2, [fp, #-16]
30000500:	e5c23000 	strb	r3, [r2]
30000504:	e51b3010 	ldr	r3, [fp, #-16]
30000508:	e2833001 	add	r3, r3, #1	; 0x1
3000050c:	e50b3010 	str	r3, [fp, #-16]
30000510:	e3a03000 	mov	r3, #0	; 0x0
30000514:	e51b2010 	ldr	r2, [fp, #-16]
30000518:	e5c23000 	strb	r3, [r2]
3000051c:	e51b3010 	ldr	r3, [fp, #-16]
30000520:	e2833001 	add	r3, r3, #1	; 0x1
30000524:	e50b3010 	str	r3, [fp, #-16]
30000528:	e3a03000 	mov	r3, #0	; 0x0
3000052c:	e51b2010 	ldr	r2, [fp, #-16]
30000530:	e5c23000 	strb	r3, [r2]
30000534:	e51b3010 	ldr	r3, [fp, #-16]
30000538:	e2833001 	add	r3, r3, #1	; 0x1
3000053c:	ebffff84 	bl	30000354 <nand_select>
30000540:	e3a00090 	mov	r0, #144	; 0x90
30000544:	ebffff9a 	bl	300003b4 <nand_cmd>
30000548:	e3a00000 	mov	r0, #0	; 0x0
3000054c:	ebffffad 	bl	30000408 <nand_addr_byte>
30000550:	ebffffc1 	bl	3000045c <nand_data>
30000554:	e1a03000 	mov	r3, r0
30000558:	e54b3009 	strb	r3, [fp, #-9]
3000055c:	ebffffbe 	bl	3000045c <nand_data>
30000560:	e1a03000 	mov	r3, r0
30000564:	e54b3008 	strb	r3, [fp, #-8]
30000568:	ebffffbb 	bl	3000045c <nand_data>
3000056c:	e1a03000 	mov	r3, r0
30000570:	e54b3007 	strb	r3, [fp, #-7]
30000574:	ebffffb8 	bl	3000045c <nand_data>
30000578:	e1a03000 	mov	r3, r0
3000057c:	e54b3006 	strb	r3, [fp, #-6]
30000580:	ebffffb5 	bl	3000045c <nand_data>
30000584:	e1a03000 	mov	r3, r0
30000588:	e54b3005 	strb	r3, [fp, #-5]
3000058c:	ebffff7c 	bl	30000384 <nand_deselect>
30000590:	e55b3009 	ldrb	r3, [fp, #-9]
30000594:	e59f0090 	ldr	r0, [pc, #144]	; 3000062c <nand_chip_id+0x178>
30000598:	e1a01003 	mov	r1, r3
3000059c:	eb0004c9 	bl	300018c8 <printf>
300005a0:	e55b3008 	ldrb	r3, [fp, #-8]
300005a4:	e59f0084 	ldr	r0, [pc, #132]	; 30000630 <nand_chip_id+0x17c>
300005a8:	e1a01003 	mov	r1, r3
300005ac:	eb0004c5 	bl	300018c8 <printf>
300005b0:	e55b3007 	ldrb	r3, [fp, #-7]
300005b4:	e59f0078 	ldr	r0, [pc, #120]	; 30000634 <nand_chip_id+0x180>
300005b8:	e1a01003 	mov	r1, r3
300005bc:	eb0004c1 	bl	300018c8 <printf>
300005c0:	e55b3006 	ldrb	r3, [fp, #-6]
300005c4:	e59f006c 	ldr	r0, [pc, #108]	; 30000638 <nand_chip_id+0x184>
300005c8:	e1a01003 	mov	r1, r3
300005cc:	eb0004bd 	bl	300018c8 <printf>
300005d0:	e55b3006 	ldrb	r3, [fp, #-6]
300005d4:	e2032003 	and	r2, r3, #3	; 0x3
300005d8:	e3a03001 	mov	r3, #1	; 0x1
300005dc:	e1a03213 	lsl	r3, r3, r2
300005e0:	e59f0054 	ldr	r0, [pc, #84]	; 3000063c <nand_chip_id+0x188>
300005e4:	e1a01003 	mov	r1, r3
300005e8:	eb0004b6 	bl	300018c8 <printf>
300005ec:	e55b3006 	ldrb	r3, [fp, #-6]
300005f0:	e1a03223 	lsr	r3, r3, #4
300005f4:	e20330ff 	and	r3, r3, #255	; 0xff
300005f8:	e2032003 	and	r2, r3, #3	; 0x3
300005fc:	e3a03040 	mov	r3, #64	; 0x40
30000600:	e1a03213 	lsl	r3, r3, r2
30000604:	e59f0034 	ldr	r0, [pc, #52]	; 30000640 <nand_chip_id+0x18c>
30000608:	e1a01003 	mov	r1, r3
3000060c:	eb0004ad 	bl	300018c8 <printf>
30000610:	e55b3005 	ldrb	r3, [fp, #-5]
30000614:	e59f0028 	ldr	r0, [pc, #40]	; 30000644 <nand_chip_id+0x190>
30000618:	e1a01003 	mov	r1, r3
3000061c:	eb0004a9 	bl	300018c8 <printf>
30000620:	e24bd004 	sub	sp, fp, #4	; 0x4
30000624:	e8bd4800 	pop	{fp, lr}
30000628:	e12fff1e 	bx	lr
3000062c:	30005188 	.word	0x30005188
30000630:	300051a0 	.word	0x300051a0
30000634:	300051b8 	.word	0x300051b8
30000638:	300051d0 	.word	0x300051d0
3000063c:	300051e8 	.word	0x300051e8
30000640:	30005200 	.word	0x30005200
30000644:	30005218 	.word	0x30005218

30000648 <nand_read>:
30000648:	e92d4810 	push	{r4, fp, lr}
3000064c:	e28db008 	add	fp, sp, #8	; 0x8
30000650:	e24dd024 	sub	sp, sp, #36	; 0x24
30000654:	e50b0020 	str	r0, [fp, #-32]
30000658:	e50b1024 	str	r1, [fp, #-36]
3000065c:	e50b2028 	str	r2, [fp, #-40]
30000660:	e3a03000 	mov	r3, #0	; 0x0
30000664:	e50b3018 	str	r3, [fp, #-24]
30000668:	e51b3020 	ldr	r3, [fp, #-32]
3000066c:	e1a035a3 	lsr	r3, r3, #11
30000670:	e50b3014 	str	r3, [fp, #-20]
30000674:	e51b3020 	ldr	r3, [fp, #-32]
30000678:	e1a03a83 	lsl	r3, r3, #21
3000067c:	e1a03aa3 	lsr	r3, r3, #21
30000680:	e50b3010 	str	r3, [fp, #-16]
30000684:	ebffff32 	bl	30000354 <nand_select>
30000688:	ea00003a 	b	30000778 <nand_read+0x130>
3000068c:	e3a00000 	mov	r0, #0	; 0x0
30000690:	ebffff47 	bl	300003b4 <nand_cmd>
30000694:	e51b3010 	ldr	r3, [fp, #-16]
30000698:	e20330ff 	and	r3, r3, #255	; 0xff
3000069c:	e1a00003 	mov	r0, r3
300006a0:	ebffff58 	bl	30000408 <nand_addr_byte>
300006a4:	e51b3010 	ldr	r3, [fp, #-16]
300006a8:	e1a03443 	asr	r3, r3, #8
300006ac:	e20330ff 	and	r3, r3, #255	; 0xff
300006b0:	e1a00003 	mov	r0, r3
300006b4:	ebffff53 	bl	30000408 <nand_addr_byte>
300006b8:	e51b3014 	ldr	r3, [fp, #-20]
300006bc:	e20330ff 	and	r3, r3, #255	; 0xff
300006c0:	e1a00003 	mov	r0, r3
300006c4:	ebffff4f 	bl	30000408 <nand_addr_byte>
300006c8:	e51b3014 	ldr	r3, [fp, #-20]
300006cc:	e1a03443 	asr	r3, r3, #8
300006d0:	e20330ff 	and	r3, r3, #255	; 0xff
300006d4:	e1a00003 	mov	r0, r3
300006d8:	ebffff4a 	bl	30000408 <nand_addr_byte>
300006dc:	e51b3014 	ldr	r3, [fp, #-20]
300006e0:	e1a03843 	asr	r3, r3, #16
300006e4:	e20330ff 	and	r3, r3, #255	; 0xff
300006e8:	e1a00003 	mov	r0, r3
300006ec:	ebffff45 	bl	30000408 <nand_addr_byte>
300006f0:	e3a00030 	mov	r0, #48	; 0x30
300006f4:	ebffff2e 	bl	300003b4 <nand_cmd>
300006f8:	ebfffefd 	bl	300002f4 <wait_ready>
300006fc:	ea00000b 	b	30000730 <nand_read+0xe8>
30000700:	e51b2018 	ldr	r2, [fp, #-24]
30000704:	e51b3024 	ldr	r3, [fp, #-36]
30000708:	e0834002 	add	r4, r3, r2
3000070c:	ebffff52 	bl	3000045c <nand_data>
30000710:	e1a03000 	mov	r3, r0
30000714:	e5c43000 	strb	r3, [r4]
30000718:	e51b3018 	ldr	r3, [fp, #-24]
3000071c:	e2833001 	add	r3, r3, #1	; 0x1
30000720:	e50b3018 	str	r3, [fp, #-24]
30000724:	e51b3010 	ldr	r3, [fp, #-16]
30000728:	e2833001 	add	r3, r3, #1	; 0x1
3000072c:	e50b3010 	str	r3, [fp, #-16]
30000730:	e51b2010 	ldr	r2, [fp, #-16]
30000734:	e3a03e7f 	mov	r3, #2032	; 0x7f0
30000738:	e283300f 	add	r3, r3, #15	; 0xf
3000073c:	e1520003 	cmp	r2, r3
30000740:	ca000003 	bgt	30000754 <nand_read+0x10c>
30000744:	e51b2018 	ldr	r2, [fp, #-24]
30000748:	e51b3028 	ldr	r3, [fp, #-40]
3000074c:	e1520003 	cmp	r2, r3
30000750:	3affffea 	bcc	30000700 <nand_read+0xb8>
30000754:	e51b2018 	ldr	r2, [fp, #-24]
30000758:	e51b3028 	ldr	r3, [fp, #-40]
3000075c:	e1520003 	cmp	r2, r3
30000760:	0a000008 	beq	30000788 <nand_read+0x140>
30000764:	e3a03000 	mov	r3, #0	; 0x0
30000768:	e50b3010 	str	r3, [fp, #-16]
3000076c:	e51b3014 	ldr	r3, [fp, #-20]
30000770:	e2833001 	add	r3, r3, #1	; 0x1
30000774:	e50b3014 	str	r3, [fp, #-20]
30000778:	e51b2018 	ldr	r2, [fp, #-24]
3000077c:	e51b3028 	ldr	r3, [fp, #-40]
30000780:	e1520003 	cmp	r2, r3
30000784:	3affffc0 	bcc	3000068c <nand_read+0x44>
30000788:	ebfffefd 	bl	30000384 <nand_deselect>
3000078c:	e24bd008 	sub	sp, fp, #8	; 0x8
30000790:	e8bd4810 	pop	{r4, fp, lr}
30000794:	e12fff1e 	bx	lr

30000798 <nand_erase>:
30000798:	e92d4800 	push	{fp, lr}
3000079c:	e28db004 	add	fp, sp, #4	; 0x4
300007a0:	e24dd018 	sub	sp, sp, #24	; 0x18
300007a4:	e50b0010 	str	r0, [fp, #-16]
300007a8:	e50b1014 	str	r1, [fp, #-20]
300007ac:	e51b3010 	ldr	r3, [fp, #-16]
300007b0:	e1a035a3 	lsr	r3, r3, #11
300007b4:	e50b3008 	str	r3, [fp, #-8]
300007b8:	e51b3010 	ldr	r3, [fp, #-16]
300007bc:	e3c334ff 	bic	r3, r3, #-16777216	; 0xff000000
300007c0:	e3c338fe 	bic	r3, r3, #16646144	; 0xfe0000
300007c4:	e3530000 	cmp	r3, #0	; 0x0
300007c8:	0a000004 	beq	300007e0 <nand_erase+0x48>
300007cc:	e59f00d8 	ldr	r0, [pc, #216]	; 300008ac <nand_erase+0x114>
300007d0:	eb00043c 	bl	300018c8 <printf>
300007d4:	e3e03000 	mvn	r3, #0	; 0x0
300007d8:	e50b3018 	str	r3, [fp, #-24]
300007dc:	ea00002d 	b	30000898 <nand_erase+0x100>
300007e0:	e51b3014 	ldr	r3, [fp, #-20]
300007e4:	e3c334ff 	bic	r3, r3, #-16777216	; 0xff000000
300007e8:	e3c338fe 	bic	r3, r3, #16646144	; 0xfe0000
300007ec:	e3530000 	cmp	r3, #0	; 0x0
300007f0:	0a000004 	beq	30000808 <nand_erase+0x70>
300007f4:	e59f00b4 	ldr	r0, [pc, #180]	; 300008b0 <nand_erase+0x118>
300007f8:	eb000432 	bl	300018c8 <printf>
300007fc:	e3e03000 	mvn	r3, #0	; 0x0
30000800:	e50b3018 	str	r3, [fp, #-24]
30000804:	ea000023 	b	30000898 <nand_erase+0x100>
30000808:	ebfffed1 	bl	30000354 <nand_select>
3000080c:	e51b3010 	ldr	r3, [fp, #-16]
30000810:	e1a035a3 	lsr	r3, r3, #11
30000814:	e50b3008 	str	r3, [fp, #-8]
30000818:	e3a00060 	mov	r0, #96	; 0x60
3000081c:	ebfffee4 	bl	300003b4 <nand_cmd>
30000820:	e51b3008 	ldr	r3, [fp, #-8]
30000824:	e20330ff 	and	r3, r3, #255	; 0xff
30000828:	e1a00003 	mov	r0, r3
3000082c:	ebfffef5 	bl	30000408 <nand_addr_byte>
30000830:	e51b3008 	ldr	r3, [fp, #-8]
30000834:	e1a03443 	asr	r3, r3, #8
30000838:	e20330ff 	and	r3, r3, #255	; 0xff
3000083c:	e1a00003 	mov	r0, r3
30000840:	ebfffef0 	bl	30000408 <nand_addr_byte>
30000844:	e51b3008 	ldr	r3, [fp, #-8]
30000848:	e1a03843 	asr	r3, r3, #16
3000084c:	e20330ff 	and	r3, r3, #255	; 0xff
30000850:	e1a00003 	mov	r0, r3
30000854:	ebfffeeb 	bl	30000408 <nand_addr_byte>
30000858:	e3a000d0 	mov	r0, #208	; 0xd0
3000085c:	ebfffed4 	bl	300003b4 <nand_cmd>
30000860:	ebfffea3 	bl	300002f4 <wait_ready>
30000864:	e51b3014 	ldr	r3, [fp, #-20]
30000868:	e2433802 	sub	r3, r3, #131072	; 0x20000
3000086c:	e50b3014 	str	r3, [fp, #-20]
30000870:	e51b3014 	ldr	r3, [fp, #-20]
30000874:	e3530000 	cmp	r3, #0	; 0x0
30000878:	0a000003 	beq	3000088c <nand_erase+0xf4>
3000087c:	e51b3010 	ldr	r3, [fp, #-16]
30000880:	e2833802 	add	r3, r3, #131072	; 0x20000
30000884:	e50b3010 	str	r3, [fp, #-16]
30000888:	eaffffdf 	b	3000080c <nand_erase+0x74>
3000088c:	ebfffebc 	bl	30000384 <nand_deselect>
30000890:	e3a03000 	mov	r3, #0	; 0x0
30000894:	e50b3018 	str	r3, [fp, #-24]
30000898:	e51b3018 	ldr	r3, [fp, #-24]
3000089c:	e1a00003 	mov	r0, r3
300008a0:	e24bd004 	sub	sp, fp, #4	; 0x4
300008a4:	e8bd4800 	pop	{fp, lr}
300008a8:	e12fff1e 	bx	lr
300008ac:	30005230 	.word	0x30005230
300008b0:	3000525c 	.word	0x3000525c

300008b4 <nand_write>:
300008b4:	e92d4800 	push	{fp, lr}
300008b8:	e28db004 	add	fp, sp, #4	; 0x4
300008bc:	e24dd020 	sub	sp, sp, #32	; 0x20
300008c0:	e50b0018 	str	r0, [fp, #-24]
300008c4:	e50b101c 	str	r1, [fp, #-28]
300008c8:	e50b2020 	str	r2, [fp, #-32]
300008cc:	e51b3018 	ldr	r3, [fp, #-24]
300008d0:	e1a035a3 	lsr	r3, r3, #11
300008d4:	e50b3010 	str	r3, [fp, #-16]
300008d8:	e51b3018 	ldr	r3, [fp, #-24]
300008dc:	e1a03a83 	lsl	r3, r3, #21
300008e0:	e1a03aa3 	lsr	r3, r3, #21
300008e4:	e50b300c 	str	r3, [fp, #-12]
300008e8:	e3a03000 	mov	r3, #0	; 0x0
300008ec:	e50b3008 	str	r3, [fp, #-8]
300008f0:	ebfffe97 	bl	30000354 <nand_select>
300008f4:	e3a00080 	mov	r0, #128	; 0x80
300008f8:	ebfffead 	bl	300003b4 <nand_cmd>
300008fc:	e51b300c 	ldr	r3, [fp, #-12]
30000900:	e20330ff 	and	r3, r3, #255	; 0xff
30000904:	e1a00003 	mov	r0, r3
30000908:	ebfffebe 	bl	30000408 <nand_addr_byte>
3000090c:	e51b300c 	ldr	r3, [fp, #-12]
30000910:	e1a03443 	asr	r3, r3, #8
30000914:	e20330ff 	and	r3, r3, #255	; 0xff
30000918:	e1a00003 	mov	r0, r3
3000091c:	ebfffeb9 	bl	30000408 <nand_addr_byte>
30000920:	e51b3010 	ldr	r3, [fp, #-16]
30000924:	e20330ff 	and	r3, r3, #255	; 0xff
30000928:	e1a00003 	mov	r0, r3
3000092c:	ebfffeb5 	bl	30000408 <nand_addr_byte>
30000930:	e51b3010 	ldr	r3, [fp, #-16]
30000934:	e1a03443 	asr	r3, r3, #8
30000938:	e20330ff 	and	r3, r3, #255	; 0xff
3000093c:	e1a00003 	mov	r0, r3
30000940:	ebfffeb0 	bl	30000408 <nand_addr_byte>
30000944:	e51b3010 	ldr	r3, [fp, #-16]
30000948:	e1a03843 	asr	r3, r3, #16
3000094c:	e20330ff 	and	r3, r3, #255	; 0xff
30000950:	e1a00003 	mov	r0, r3
30000954:	ebfffeab 	bl	30000408 <nand_addr_byte>
30000958:	ea000008 	b	30000980 <nand_write+0xcc>
3000095c:	e51b2008 	ldr	r2, [fp, #-8]
30000960:	e51b301c 	ldr	r3, [fp, #-28]
30000964:	e0833002 	add	r3, r3, r2
30000968:	e5d32000 	ldrb	r2, [r3]
3000096c:	e51b3008 	ldr	r3, [fp, #-8]
30000970:	e2833001 	add	r3, r3, #1	; 0x1
30000974:	e50b3008 	str	r3, [fp, #-8]
30000978:	e1a00002 	mov	r0, r2
3000097c:	ebfffec0 	bl	30000484 <nand_w_data>
30000980:	e51b200c 	ldr	r2, [fp, #-12]
30000984:	e3a03e7f 	mov	r3, #2032	; 0x7f0
30000988:	e283300f 	add	r3, r3, #15	; 0xf
3000098c:	e1520003 	cmp	r2, r3
30000990:	ca000003 	bgt	300009a4 <nand_write+0xf0>
30000994:	e51b2008 	ldr	r2, [fp, #-8]
30000998:	e51b3020 	ldr	r3, [fp, #-32]
3000099c:	e1520003 	cmp	r2, r3
300009a0:	3affffed 	bcc	3000095c <nand_write+0xa8>
300009a4:	e3a00010 	mov	r0, #16	; 0x10
300009a8:	ebfffe81 	bl	300003b4 <nand_cmd>
300009ac:	ebfffe50 	bl	300002f4 <wait_ready>
300009b0:	e51b2008 	ldr	r2, [fp, #-8]
300009b4:	e51b3020 	ldr	r3, [fp, #-32]
300009b8:	e1520003 	cmp	r2, r3
300009bc:	0a000005 	beq	300009d8 <nand_write+0x124>
300009c0:	e3a03000 	mov	r3, #0	; 0x0
300009c4:	e50b300c 	str	r3, [fp, #-12]
300009c8:	e51b3010 	ldr	r3, [fp, #-16]
300009cc:	e2833001 	add	r3, r3, #1	; 0x1
300009d0:	e50b3010 	str	r3, [fp, #-16]
300009d4:	eaffffc6 	b	300008f4 <nand_write+0x40>
300009d8:	ebfffe69 	bl	30000384 <nand_deselect>
300009dc:	e24bd004 	sub	sp, fp, #4	; 0x4
300009e0:	e8bd4800 	pop	{fp, lr}
300009e4:	e12fff1e 	bx	lr

300009e8 <do_read_nand_flash>:
300009e8:	e92d4800 	push	{fp, lr}
300009ec:	e28db004 	add	fp, sp, #4	; 0x4
300009f0:	e24dd068 	sub	sp, sp, #104	; 0x68
300009f4:	e59f0168 	ldr	r0, [pc, #360]	; 30000b64 <do_read_nand_flash+0x17c>
300009f8:	eb0003b2 	bl	300018c8 <printf>
300009fc:	eb000241 	bl	30001308 <get_uint>
30000a00:	e1a03000 	mov	r3, r0
30000a04:	e50b3018 	str	r3, [fp, #-24]
30000a08:	e24b3068 	sub	r3, fp, #104	; 0x68
30000a0c:	e51b0018 	ldr	r0, [fp, #-24]
30000a10:	e1a01003 	mov	r1, r3
30000a14:	e3a02040 	mov	r2, #64	; 0x40
30000a18:	ebffff0a 	bl	30000648 <nand_read>
30000a1c:	e24b3068 	sub	r3, fp, #104	; 0x68
30000a20:	e50b3014 	str	r3, [fp, #-20]
30000a24:	e59f013c 	ldr	r0, [pc, #316]	; 30000b68 <do_read_nand_flash+0x180>
30000a28:	eb0003a6 	bl	300018c8 <printf>
30000a2c:	e3a03000 	mov	r3, #0	; 0x0
30000a30:	e50b3010 	str	r3, [fp, #-16]
30000a34:	ea000044 	b	30000b4c <do_read_nand_flash+0x164>
30000a38:	e3a03000 	mov	r3, #0	; 0x0
30000a3c:	e50b300c 	str	r3, [fp, #-12]
30000a40:	ea000013 	b	30000a94 <do_read_nand_flash+0xac>
30000a44:	e51b3014 	ldr	r3, [fp, #-20]
30000a48:	e5d33000 	ldrb	r3, [r3]
30000a4c:	e54b3005 	strb	r3, [fp, #-5]
30000a50:	e51b3014 	ldr	r3, [fp, #-20]
30000a54:	e2833001 	add	r3, r3, #1	; 0x1
30000a58:	e50b3014 	str	r3, [fp, #-20]
30000a5c:	e51b300c 	ldr	r3, [fp, #-12]
30000a60:	e3e02023 	mvn	r2, #35	; 0x23
30000a64:	e24b1004 	sub	r1, fp, #4	; 0x4
30000a68:	e0813003 	add	r3, r1, r3
30000a6c:	e0832002 	add	r2, r3, r2
30000a70:	e55b3005 	ldrb	r3, [fp, #-5]
30000a74:	e5c23000 	strb	r3, [r2]
30000a78:	e55b3005 	ldrb	r3, [fp, #-5]
30000a7c:	e59f00e8 	ldr	r0, [pc, #232]	; 30000b6c <do_read_nand_flash+0x184>
30000a80:	e1a01003 	mov	r1, r3
30000a84:	eb00038f 	bl	300018c8 <printf>
30000a88:	e51b300c 	ldr	r3, [fp, #-12]
30000a8c:	e2833001 	add	r3, r3, #1	; 0x1
30000a90:	e50b300c 	str	r3, [fp, #-12]
30000a94:	e51b300c 	ldr	r3, [fp, #-12]
30000a98:	e353000f 	cmp	r3, #15	; 0xf
30000a9c:	daffffe8 	ble	30000a44 <do_read_nand_flash+0x5c>
30000aa0:	e59f00c8 	ldr	r0, [pc, #200]	; 30000b70 <do_read_nand_flash+0x188>
30000aa4:	eb000387 	bl	300018c8 <printf>
30000aa8:	e3a03000 	mov	r3, #0	; 0x0
30000aac:	e50b300c 	str	r3, [fp, #-12]
30000ab0:	ea00001d 	b	30000b2c <do_read_nand_flash+0x144>
30000ab4:	e51b300c 	ldr	r3, [fp, #-12]
30000ab8:	e3e02023 	mvn	r2, #35	; 0x23
30000abc:	e24b1004 	sub	r1, fp, #4	; 0x4
30000ac0:	e0813003 	add	r3, r1, r3
30000ac4:	e0833002 	add	r3, r3, r2
30000ac8:	e5d33000 	ldrb	r3, [r3]
30000acc:	e353001f 	cmp	r3, #31	; 0x1f
30000ad0:	9a000007 	bls	30000af4 <do_read_nand_flash+0x10c>
30000ad4:	e51b300c 	ldr	r3, [fp, #-12]
30000ad8:	e3e02023 	mvn	r2, #35	; 0x23
30000adc:	e24b1004 	sub	r1, fp, #4	; 0x4
30000ae0:	e0813003 	add	r3, r1, r3
30000ae4:	e0833002 	add	r3, r3, r2
30000ae8:	e5d33000 	ldrb	r3, [r3]
30000aec:	e353007e 	cmp	r3, #126	; 0x7e
30000af0:	9a000002 	bls	30000b00 <do_read_nand_flash+0x118>
30000af4:	e3a0002e 	mov	r0, #46	; 0x2e
30000af8:	eb000b4b 	bl	3000382c <putchar>
30000afc:	ea000007 	b	30000b20 <do_read_nand_flash+0x138>
30000b00:	e51b300c 	ldr	r3, [fp, #-12]
30000b04:	e3e02023 	mvn	r2, #35	; 0x23
30000b08:	e24b1004 	sub	r1, fp, #4	; 0x4
30000b0c:	e0813003 	add	r3, r1, r3
30000b10:	e0833002 	add	r3, r3, r2
30000b14:	e5d33000 	ldrb	r3, [r3]
30000b18:	e1a00003 	mov	r0, r3
30000b1c:	eb000b42 	bl	3000382c <putchar>
30000b20:	e51b300c 	ldr	r3, [fp, #-12]
30000b24:	e2833001 	add	r3, r3, #1	; 0x1
30000b28:	e50b300c 	str	r3, [fp, #-12]
30000b2c:	e51b300c 	ldr	r3, [fp, #-12]
30000b30:	e353000f 	cmp	r3, #15	; 0xf
30000b34:	daffffde 	ble	30000ab4 <do_read_nand_flash+0xcc>
30000b38:	e59f0034 	ldr	r0, [pc, #52]	; 30000b74 <do_read_nand_flash+0x18c>
30000b3c:	eb000361 	bl	300018c8 <printf>
30000b40:	e51b3010 	ldr	r3, [fp, #-16]
30000b44:	e2833001 	add	r3, r3, #1	; 0x1
30000b48:	e50b3010 	str	r3, [fp, #-16]
30000b4c:	e51b3010 	ldr	r3, [fp, #-16]
30000b50:	e3530003 	cmp	r3, #3	; 0x3
30000b54:	daffffb7 	ble	30000a38 <do_read_nand_flash+0x50>
30000b58:	e24bd004 	sub	sp, fp, #4	; 0x4
30000b5c:	e8bd4800 	pop	{fp, lr}
30000b60:	e12fff1e 	bx	lr
30000b64:	30005288 	.word	0x30005288
30000b68:	300052a4 	.word	0x300052a4
30000b6c:	300052b0 	.word	0x300052b0
30000b70:	300052b8 	.word	0x300052b8
30000b74:	300052c0 	.word	0x300052c0

30000b78 <do_erase_nand_flash>:
30000b78:	e92d4800 	push	{fp, lr}
30000b7c:	e28db004 	add	fp, sp, #4	; 0x4
30000b80:	e24dd008 	sub	sp, sp, #8	; 0x8
30000b84:	e59f002c 	ldr	r0, [pc, #44]	; 30000bb8 <do_erase_nand_flash+0x40>
30000b88:	eb00034e 	bl	300018c8 <printf>
30000b8c:	eb0001dd 	bl	30001308 <get_uint>
30000b90:	e1a03000 	mov	r3, r0
30000b94:	e50b3008 	str	r3, [fp, #-8]
30000b98:	e59f001c 	ldr	r0, [pc, #28]	; 30000bbc <do_erase_nand_flash+0x44>
30000b9c:	eb000349 	bl	300018c8 <printf>
30000ba0:	e51b0008 	ldr	r0, [fp, #-8]
30000ba4:	e3a01802 	mov	r1, #131072	; 0x20000
30000ba8:	ebfffefa 	bl	30000798 <nand_erase>
30000bac:	e24bd004 	sub	sp, fp, #4	; 0x4
30000bb0:	e8bd4800 	pop	{fp, lr}
30000bb4:	e12fff1e 	bx	lr
30000bb8:	300052c4 	.word	0x300052c4
30000bbc:	300052ec 	.word	0x300052ec

30000bc0 <strlen>:
30000bc0:	e52db004 	push	{fp}		; (str fp, [sp, #-4]!)
30000bc4:	e28db000 	add	fp, sp, #0	; 0x0
30000bc8:	e24dd014 	sub	sp, sp, #20	; 0x14
30000bcc:	e50b0010 	str	r0, [fp, #-16]
30000bd0:	e51b3010 	ldr	r3, [fp, #-16]
30000bd4:	e50b3008 	str	r3, [fp, #-8]
30000bd8:	e51b3008 	ldr	r3, [fp, #-8]
30000bdc:	e5d33000 	ldrb	r3, [r3]
30000be0:	e3530000 	cmp	r3, #0	; 0x0
30000be4:	03a03000 	moveq	r3, #0	; 0x0
30000be8:	13a03001 	movne	r3, #1	; 0x1
30000bec:	e20320ff 	and	r2, r3, #255	; 0xff
30000bf0:	e51b3008 	ldr	r3, [fp, #-8]
30000bf4:	e2833001 	add	r3, r3, #1	; 0x1
30000bf8:	e50b3008 	str	r3, [fp, #-8]
30000bfc:	e3520000 	cmp	r2, #0	; 0x0
30000c00:	1afffff4 	bne	30000bd8 <strlen+0x18>
30000c04:	e51b2008 	ldr	r2, [fp, #-8]
30000c08:	e51b3010 	ldr	r3, [fp, #-16]
30000c0c:	e0633002 	rsb	r3, r3, r2
30000c10:	e2433001 	sub	r3, r3, #1	; 0x1
30000c14:	e1a00003 	mov	r0, r3
30000c18:	e28bd000 	add	sp, fp, #0	; 0x0
30000c1c:	e8bd0800 	pop	{fp}
30000c20:	e12fff1e 	bx	lr

30000c24 <do_write_nand_flash>:
30000c24:	e92d4800 	push	{fp, lr}
30000c28:	e28db004 	add	fp, sp, #4	; 0x4
30000c2c:	e24dd078 	sub	sp, sp, #120	; 0x78
30000c30:	e59f0058 	ldr	r0, [pc, #88]	; 30000c90 <do_write_nand_flash+0x6c>
30000c34:	eb000323 	bl	300018c8 <printf>
30000c38:	eb0001b2 	bl	30001308 <get_uint>
30000c3c:	e1a03000 	mov	r3, r0
30000c40:	e50b3014 	str	r3, [fp, #-20]
30000c44:	e59f0048 	ldr	r0, [pc, #72]	; 30000c94 <do_write_nand_flash+0x70>
30000c48:	eb00031e 	bl	300018c8 <printf>
30000c4c:	e24b3078 	sub	r3, fp, #120	; 0x78
30000c50:	e1a00003 	mov	r0, r3
30000c54:	eb00016b 	bl	30001208 <gets>
30000c58:	e59f0038 	ldr	r0, [pc, #56]	; 30000c98 <do_write_nand_flash+0x74>
30000c5c:	eb000319 	bl	300018c8 <printf>
30000c60:	e24b3078 	sub	r3, fp, #120	; 0x78
30000c64:	e1a00003 	mov	r0, r3
30000c68:	ebffffd4 	bl	30000bc0 <strlen>
30000c6c:	e1a03000 	mov	r3, r0
30000c70:	e2832001 	add	r2, r3, #1	; 0x1
30000c74:	e24b3078 	sub	r3, fp, #120	; 0x78
30000c78:	e51b0014 	ldr	r0, [fp, #-20]
30000c7c:	e1a01003 	mov	r1, r3
30000c80:	ebffff0b 	bl	300008b4 <nand_write>
30000c84:	e24bd004 	sub	sp, fp, #4	; 0x4
30000c88:	e8bd4800 	pop	{fp, lr}
30000c8c:	e12fff1e 	bx	lr
30000c90:	300052fc 	.word	0x300052fc
30000c94:	30005324 	.word	0x30005324
30000c98:	30005340 	.word	0x30005340

30000c9c <nand_flash_test>:
30000c9c:	e92d4800 	push	{fp, lr}
30000ca0:	e28db004 	add	fp, sp, #4	; 0x4
30000ca4:	e24dd008 	sub	sp, sp, #8	; 0x8
30000ca8:	e59f0158 	ldr	r0, [pc, #344]	; 30000e08 <nand_flash_test+0x16c>
30000cac:	eb000b24 	bl	30003944 <puts>
30000cb0:	e59f0154 	ldr	r0, [pc, #340]	; 30000e0c <nand_flash_test+0x170>
30000cb4:	eb000303 	bl	300018c8 <printf>
30000cb8:	e59f0150 	ldr	r0, [pc, #336]	; 30000e10 <nand_flash_test+0x174>
30000cbc:	eb000301 	bl	300018c8 <printf>
30000cc0:	e59f014c 	ldr	r0, [pc, #332]	; 30000e14 <nand_flash_test+0x178>
30000cc4:	eb0002ff 	bl	300018c8 <printf>
30000cc8:	e59f0148 	ldr	r0, [pc, #328]	; 30000e18 <nand_flash_test+0x17c>
30000ccc:	eb0002fd 	bl	300018c8 <printf>
30000cd0:	e59f0144 	ldr	r0, [pc, #324]	; 30000e1c <nand_flash_test+0x180>
30000cd4:	eb0002fb 	bl	300018c8 <printf>
30000cd8:	e59f0140 	ldr	r0, [pc, #320]	; 30000e20 <nand_flash_test+0x184>
30000cdc:	eb0002f9 	bl	300018c8 <printf>
30000ce0:	eb000af1 	bl	300038ac <getchar>
30000ce4:	e1a03000 	mov	r3, r0
30000ce8:	e54b3005 	strb	r3, [fp, #-5]
30000cec:	e55b3005 	ldrb	r3, [fp, #-5]
30000cf0:	e59f012c 	ldr	r0, [pc, #300]	; 30000e24 <nand_flash_test+0x188>
30000cf4:	e1a01003 	mov	r1, r3
30000cf8:	eb0002f2 	bl	300018c8 <printf>
30000cfc:	e55b3005 	ldrb	r3, [fp, #-5]
30000d00:	e2433045 	sub	r3, r3, #69	; 0x45
30000d04:	e3530032 	cmp	r3, #50	; 0x32
30000d08:	979ff103 	ldrls	pc, [pc, r3, lsl #2]
30000d0c:	eaffffe5 	b	30000ca8 <nand_flash_test+0xc>
30000d10:	30000de4 	.word	0x30000de4
30000d14:	30000ca8 	.word	0x30000ca8
30000d18:	30000ca8 	.word	0x30000ca8
30000d1c:	30000ca8 	.word	0x30000ca8
30000d20:	30000ca8 	.word	0x30000ca8
30000d24:	30000ca8 	.word	0x30000ca8
30000d28:	30000ca8 	.word	0x30000ca8
30000d2c:	30000ca8 	.word	0x30000ca8
30000d30:	30000ca8 	.word	0x30000ca8
30000d34:	30000ca8 	.word	0x30000ca8
30000d38:	30000ca8 	.word	0x30000ca8
30000d3c:	30000ca8 	.word	0x30000ca8
30000d40:	30000dfc 	.word	0x30000dfc
30000d44:	30000df4 	.word	0x30000df4
30000d48:	30000ddc 	.word	0x30000ddc
30000d4c:	30000ca8 	.word	0x30000ca8
30000d50:	30000ca8 	.word	0x30000ca8
30000d54:	30000ca8 	.word	0x30000ca8
30000d58:	30000dec 	.word	0x30000dec
30000d5c:	30000ca8 	.word	0x30000ca8
30000d60:	30000ca8 	.word	0x30000ca8
30000d64:	30000ca8 	.word	0x30000ca8
30000d68:	30000ca8 	.word	0x30000ca8
30000d6c:	30000ca8 	.word	0x30000ca8
30000d70:	30000ca8 	.word	0x30000ca8
30000d74:	30000ca8 	.word	0x30000ca8
30000d78:	30000ca8 	.word	0x30000ca8
30000d7c:	30000ca8 	.word	0x30000ca8
30000d80:	30000ca8 	.word	0x30000ca8
30000d84:	30000ca8 	.word	0x30000ca8
30000d88:	30000ca8 	.word	0x30000ca8
30000d8c:	30000ca8 	.word	0x30000ca8
30000d90:	30000de4 	.word	0x30000de4
30000d94:	30000ca8 	.word	0x30000ca8
30000d98:	30000ca8 	.word	0x30000ca8
30000d9c:	30000ca8 	.word	0x30000ca8
30000da0:	30000ca8 	.word	0x30000ca8
30000da4:	30000ca8 	.word	0x30000ca8
30000da8:	30000ca8 	.word	0x30000ca8
30000dac:	30000ca8 	.word	0x30000ca8
30000db0:	30000ca8 	.word	0x30000ca8
30000db4:	30000ca8 	.word	0x30000ca8
30000db8:	30000ca8 	.word	0x30000ca8
30000dbc:	30000ca8 	.word	0x30000ca8
30000dc0:	30000dfc 	.word	0x30000dfc
30000dc4:	30000df4 	.word	0x30000df4
30000dc8:	30000ddc 	.word	0x30000ddc
30000dcc:	30000ca8 	.word	0x30000ca8
30000dd0:	30000ca8 	.word	0x30000ca8
30000dd4:	30000ca8 	.word	0x30000ca8
30000dd8:	30000dec 	.word	0x30000dec
30000ddc:	ebfffdb4 	bl	300004b4 <nand_chip_id>
30000de0:	eaffffb0 	b	30000ca8 <nand_flash_test+0xc>
30000de4:	ebffff63 	bl	30000b78 <do_erase_nand_flash>
30000de8:	eaffffae 	b	30000ca8 <nand_flash_test+0xc>
30000dec:	ebffff8c 	bl	30000c24 <do_write_nand_flash>
30000df0:	eaffffac 	b	30000ca8 <nand_flash_test+0xc>
30000df4:	ebfffefb 	bl	300009e8 <do_read_nand_flash>
30000df8:	eaffffaa 	b	30000ca8 <nand_flash_test+0xc>
30000dfc:	e24bd004 	sub	sp, fp, #4	; 0x4
30000e00:	e8bd4800 	pop	{fp, lr}
30000e04:	e12fff1e 	bx	lr
30000e08:	30005350 	.word	0x30005350
30000e0c:	30005370 	.word	0x30005370
30000e10:	30005388 	.word	0x30005388
30000e14:	300053a0 	.word	0x300053a0
30000e18:	300053b8 	.word	0x300053b8
30000e1c:	300053d0 	.word	0x300053d0
30000e20:	300053dc 	.word	0x300053dc
30000e24:	300053f0 	.word	0x300053f0

30000e28 <sdram_config>:
30000e28:	e52db004 	push	{fp}		; (str fp, [sp, #-4]!)
30000e2c:	e28db000 	add	fp, sp, #0	; 0x0
30000e30:	e3a02312 	mov	r2, #1207959552	; 0x48000000
30000e34:	e3a03422 	mov	r3, #570425344	; 0x22000000
30000e38:	e5823000 	str	r3, [r2]
30000e3c:	e3a02312 	mov	r2, #1207959552	; 0x48000000
30000e40:	e282201c 	add	r2, r2, #28	; 0x1c
30000e44:	e3a03906 	mov	r3, #98304	; 0x18000
30000e48:	e2833001 	add	r3, r3, #1	; 0x1
30000e4c:	e5823000 	str	r3, [r2]
30000e50:	e3a02312 	mov	r2, #1207959552	; 0x48000000
30000e54:	e2822020 	add	r2, r2, #32	; 0x20
30000e58:	e3a03906 	mov	r3, #98304	; 0x18000
30000e5c:	e2833001 	add	r3, r3, #1	; 0x1
30000e60:	e5823000 	str	r3, [r2]
30000e64:	e3a02312 	mov	r2, #1207959552	; 0x48000000
30000e68:	e2822024 	add	r2, r2, #36	; 0x24
30000e6c:	e3a03721 	mov	r3, #8650752	; 0x840000
30000e70:	e2833e4f 	add	r3, r3, #1264	; 0x4f0
30000e74:	e2833005 	add	r3, r3, #5	; 0x5
30000e78:	e5823000 	str	r3, [r2]
30000e7c:	e3a03312 	mov	r3, #1207959552	; 0x48000000
30000e80:	e2833028 	add	r3, r3, #40	; 0x28
30000e84:	e3a020b1 	mov	r2, #177	; 0xb1
30000e88:	e5832000 	str	r2, [r3]
30000e8c:	e3a03312 	mov	r3, #1207959552	; 0x48000000
30000e90:	e283302c 	add	r3, r3, #44	; 0x2c
30000e94:	e3a02020 	mov	r2, #32	; 0x20
30000e98:	e5832000 	str	r2, [r3]
30000e9c:	e3a03312 	mov	r3, #1207959552	; 0x48000000
30000ea0:	e2833030 	add	r3, r3, #48	; 0x30
30000ea4:	e3a02020 	mov	r2, #32	; 0x20
30000ea8:	e5832000 	str	r2, [r3]
30000eac:	e28bd000 	add	sp, fp, #0	; 0x0
30000eb0:	e8bd0800 	pop	{fp}
30000eb4:	e12fff1e 	bx	lr

30000eb8 <sdram_text>:
30000eb8:	e52db004 	push	{fp}		; (str fp, [sp, #-4]!)
30000ebc:	e28db000 	add	fp, sp, #0	; 0x0
30000ec0:	e24dd014 	sub	sp, sp, #20	; 0x14
30000ec4:	e3a03203 	mov	r3, #805306368	; 0x30000000
30000ec8:	e50b300c 	str	r3, [fp, #-12]
30000ecc:	e3a03000 	mov	r3, #0	; 0x0
30000ed0:	e50b3008 	str	r3, [fp, #-8]
30000ed4:	e3a03000 	mov	r3, #0	; 0x0
30000ed8:	e50b3008 	str	r3, [fp, #-8]
30000edc:	ea000007 	b	30000f00 <sdram_text+0x48>
30000ee0:	e51b2008 	ldr	r2, [fp, #-8]
30000ee4:	e51b300c 	ldr	r3, [fp, #-12]
30000ee8:	e0832002 	add	r2, r3, r2
30000eec:	e3e03077 	mvn	r3, #119	; 0x77
30000ef0:	e5c23000 	strb	r3, [r2]
30000ef4:	e51b3008 	ldr	r3, [fp, #-8]
30000ef8:	e2833001 	add	r3, r3, #1	; 0x1
30000efc:	e50b3008 	str	r3, [fp, #-8]
30000f00:	e51b3008 	ldr	r3, [fp, #-8]
30000f04:	e3530009 	cmp	r3, #9	; 0x9
30000f08:	dafffff4 	ble	30000ee0 <sdram_text+0x28>
30000f0c:	e3a03000 	mov	r3, #0	; 0x0
30000f10:	e50b3008 	str	r3, [fp, #-8]
30000f14:	ea00000c 	b	30000f4c <sdram_text+0x94>
30000f18:	e51b2008 	ldr	r2, [fp, #-8]
30000f1c:	e51b300c 	ldr	r3, [fp, #-12]
30000f20:	e0833002 	add	r3, r3, r2
30000f24:	e5d33000 	ldrb	r3, [r3]
30000f28:	e3530088 	cmp	r3, #136	; 0x88
30000f2c:	0a000003 	beq	30000f40 <sdram_text+0x88>
30000f30:	e3e03000 	mvn	r3, #0	; 0x0
30000f34:	e50b3010 	str	r3, [fp, #-16]
30000f38:	e51b0010 	ldr	r0, [fp, #-16]
30000f3c:	ea000005 	b	30000f58 <sdram_text+0xa0>
30000f40:	e51b3008 	ldr	r3, [fp, #-8]
30000f44:	e2833001 	add	r3, r3, #1	; 0x1
30000f48:	e50b3008 	str	r3, [fp, #-8]
30000f4c:	e51b3008 	ldr	r3, [fp, #-8]
30000f50:	e3530009 	cmp	r3, #9	; 0x9
30000f54:	daffffef 	ble	30000f18 <sdram_text+0x60>
30000f58:	e28bd000 	add	sp, fp, #0	; 0x0
30000f5c:	e8bd0800 	pop	{fp}
30000f60:	e12fff1e 	bx	lr

30000f64 <simple_strtoul>:
30000f64:	e92d4800 	push	{fp, lr}
30000f68:	e28db004 	add	fp, sp, #4	; 0x4
30000f6c:	e24dd020 	sub	sp, sp, #32	; 0x20
30000f70:	e50b0010 	str	r0, [fp, #-16]
30000f74:	e50b1014 	str	r1, [fp, #-20]
30000f78:	e50b2018 	str	r2, [fp, #-24]
30000f7c:	e3a03000 	mov	r3, #0	; 0x0
30000f80:	e50b300c 	str	r3, [fp, #-12]
30000f84:	e51b3010 	ldr	r3, [fp, #-16]
30000f88:	e5d33000 	ldrb	r3, [r3]
30000f8c:	e3530030 	cmp	r3, #48	; 0x30
30000f90:	1a00001d 	bne	3000100c <simple_strtoul+0xa8>
30000f94:	e51b3010 	ldr	r3, [fp, #-16]
30000f98:	e2833001 	add	r3, r3, #1	; 0x1
30000f9c:	e50b3010 	str	r3, [fp, #-16]
30000fa0:	e51b3010 	ldr	r3, [fp, #-16]
30000fa4:	e5d33000 	ldrb	r3, [r3]
30000fa8:	e3530078 	cmp	r3, #120	; 0x78
30000fac:	0a000003 	beq	30000fc0 <simple_strtoul+0x5c>
30000fb0:	e51b3010 	ldr	r3, [fp, #-16]
30000fb4:	e5d33000 	ldrb	r3, [r3]
30000fb8:	e3530058 	cmp	r3, #88	; 0x58
30000fbc:	1a00000d 	bne	30000ff8 <simple_strtoul+0x94>
30000fc0:	e51b3010 	ldr	r3, [fp, #-16]
30000fc4:	e2833001 	add	r3, r3, #1	; 0x1
30000fc8:	e5d33000 	ldrb	r3, [r3]
30000fcc:	e1a02003 	mov	r2, r3
30000fd0:	e59f3160 	ldr	r3, [pc, #352]	; 30001138 <simple_strtoul+0x1d4>
30000fd4:	e7d33002 	ldrb	r3, [r3, r2]
30000fd8:	e2033044 	and	r3, r3, #68	; 0x44
30000fdc:	e3530000 	cmp	r3, #0	; 0x0
30000fe0:	0a000004 	beq	30000ff8 <simple_strtoul+0x94>
30000fe4:	e3a03010 	mov	r3, #16	; 0x10
30000fe8:	e50b3018 	str	r3, [fp, #-24]
30000fec:	e51b3010 	ldr	r3, [fp, #-16]
30000ff0:	e2833001 	add	r3, r3, #1	; 0x1
30000ff4:	e50b3010 	str	r3, [fp, #-16]
30000ff8:	e51b3018 	ldr	r3, [fp, #-24]
30000ffc:	e3530000 	cmp	r3, #0	; 0x0
30001000:	1a000001 	bne	3000100c <simple_strtoul+0xa8>
30001004:	e3a03008 	mov	r3, #8	; 0x8
30001008:	e50b3018 	str	r3, [fp, #-24]
3000100c:	e51b3018 	ldr	r3, [fp, #-24]
30001010:	e3530000 	cmp	r3, #0	; 0x0
30001014:	1a00000b 	bne	30001048 <simple_strtoul+0xe4>
30001018:	e3a0300a 	mov	r3, #10	; 0xa
3000101c:	e50b3018 	str	r3, [fp, #-24]
30001020:	ea000008 	b	30001048 <simple_strtoul+0xe4>
30001024:	e51b200c 	ldr	r2, [fp, #-12]
30001028:	e51b3018 	ldr	r3, [fp, #-24]
3000102c:	e0020293 	mul	r2, r3, r2
30001030:	e51b3008 	ldr	r3, [fp, #-8]
30001034:	e0823003 	add	r3, r2, r3
30001038:	e50b300c 	str	r3, [fp, #-12]
3000103c:	e51b3010 	ldr	r3, [fp, #-16]
30001040:	e2833001 	add	r3, r3, #1	; 0x1
30001044:	e50b3010 	str	r3, [fp, #-16]
30001048:	e51b3010 	ldr	r3, [fp, #-16]
3000104c:	e5d33000 	ldrb	r3, [r3]
30001050:	e1a02003 	mov	r2, r3
30001054:	e59f30dc 	ldr	r3, [pc, #220]	; 30001138 <simple_strtoul+0x1d4>
30001058:	e7d33002 	ldrb	r3, [r3, r2]
3000105c:	e2033044 	and	r3, r3, #68	; 0x44
30001060:	e3530000 	cmp	r3, #0	; 0x0
30001064:	0a000028 	beq	3000110c <simple_strtoul+0x1a8>
30001068:	e51b3010 	ldr	r3, [fp, #-16]
3000106c:	e5d33000 	ldrb	r3, [r3]
30001070:	e1a02003 	mov	r2, r3
30001074:	e59f30bc 	ldr	r3, [pc, #188]	; 30001138 <simple_strtoul+0x1d4>
30001078:	e7d33002 	ldrb	r3, [r3, r2]
3000107c:	e2033004 	and	r3, r3, #4	; 0x4
30001080:	e3530000 	cmp	r3, #0	; 0x0
30001084:	0a000004 	beq	3000109c <simple_strtoul+0x138>
30001088:	e51b3010 	ldr	r3, [fp, #-16]
3000108c:	e5d33000 	ldrb	r3, [r3]
30001090:	e2433030 	sub	r3, r3, #48	; 0x30
30001094:	e50b3020 	str	r3, [fp, #-32]
30001098:	ea000015 	b	300010f4 <simple_strtoul+0x190>
3000109c:	e51b3010 	ldr	r3, [fp, #-16]
300010a0:	e5d33000 	ldrb	r3, [r3]
300010a4:	e1a02003 	mov	r2, r3
300010a8:	e59f3088 	ldr	r3, [pc, #136]	; 30001138 <simple_strtoul+0x1d4>
300010ac:	e7d33002 	ldrb	r3, [r3, r2]
300010b0:	e2033002 	and	r3, r3, #2	; 0x2
300010b4:	e3530000 	cmp	r3, #0	; 0x0
300010b8:	0a000007 	beq	300010dc <simple_strtoul+0x178>
300010bc:	e51b3010 	ldr	r3, [fp, #-16]
300010c0:	e5d33000 	ldrb	r3, [r3]
300010c4:	e1a00003 	mov	r0, r3
300010c8:	eb00001b 	bl	3000113c <__toupper>
300010cc:	e1a03000 	mov	r3, r0
300010d0:	e2433037 	sub	r3, r3, #55	; 0x37
300010d4:	e50b301c 	str	r3, [fp, #-28]
300010d8:	ea000003 	b	300010ec <simple_strtoul+0x188>
300010dc:	e51b3010 	ldr	r3, [fp, #-16]
300010e0:	e5d33000 	ldrb	r3, [r3]
300010e4:	e2433037 	sub	r3, r3, #55	; 0x37
300010e8:	e50b301c 	str	r3, [fp, #-28]
300010ec:	e51b301c 	ldr	r3, [fp, #-28]
300010f0:	e50b3020 	str	r3, [fp, #-32]
300010f4:	e51b3020 	ldr	r3, [fp, #-32]
300010f8:	e50b3008 	str	r3, [fp, #-8]
300010fc:	e51b2008 	ldr	r2, [fp, #-8]
30001100:	e51b3018 	ldr	r3, [fp, #-24]
30001104:	e1520003 	cmp	r2, r3
30001108:	3affffc5 	bcc	30001024 <simple_strtoul+0xc0>
3000110c:	e51b3014 	ldr	r3, [fp, #-20]
30001110:	e3530000 	cmp	r3, #0	; 0x0
30001114:	0a000002 	beq	30001124 <simple_strtoul+0x1c0>
30001118:	e51b2010 	ldr	r2, [fp, #-16]
3000111c:	e51b3014 	ldr	r3, [fp, #-20]
30001120:	e5832000 	str	r2, [r3]
30001124:	e51b300c 	ldr	r3, [fp, #-12]
30001128:	e1a00003 	mov	r0, r3
3000112c:	e24bd004 	sub	sp, fp, #4	; 0x4
30001130:	e8bd4800 	pop	{fp, lr}
30001134:	e12fff1e 	bx	lr
30001138:	300066e4 	.word	0x300066e4

3000113c <__toupper>:
3000113c:	e52db004 	push	{fp}		; (str fp, [sp, #-4]!)
30001140:	e28db000 	add	fp, sp, #0	; 0x0
30001144:	e24dd00c 	sub	sp, sp, #12	; 0xc
30001148:	e1a03000 	mov	r3, r0
3000114c:	e54b3005 	strb	r3, [fp, #-5]
30001150:	e55b2005 	ldrb	r2, [fp, #-5]
30001154:	e59f302c 	ldr	r3, [pc, #44]	; 30001188 <__toupper+0x4c>
30001158:	e7d33002 	ldrb	r3, [r3, r2]
3000115c:	e2033002 	and	r3, r3, #2	; 0x2
30001160:	e3530000 	cmp	r3, #0	; 0x0
30001164:	0a000002 	beq	30001174 <__toupper+0x38>
30001168:	e55b3005 	ldrb	r3, [fp, #-5]
3000116c:	e2433020 	sub	r3, r3, #32	; 0x20
30001170:	e54b3005 	strb	r3, [fp, #-5]
30001174:	e55b3005 	ldrb	r3, [fp, #-5]
30001178:	e1a00003 	mov	r0, r3
3000117c:	e28bd000 	add	sp, fp, #0	; 0x0
30001180:	e8bd0800 	pop	{fp}
30001184:	e12fff1e 	bx	lr
30001188:	300066e4 	.word	0x300066e4

3000118c <simple_strtol>:
3000118c:	e92d4800 	push	{fp, lr}
30001190:	e28db004 	add	fp, sp, #4	; 0x4
30001194:	e24dd010 	sub	sp, sp, #16	; 0x10
30001198:	e50b0008 	str	r0, [fp, #-8]
3000119c:	e50b100c 	str	r1, [fp, #-12]
300011a0:	e50b2010 	str	r2, [fp, #-16]
300011a4:	e51b3008 	ldr	r3, [fp, #-8]
300011a8:	e5d33000 	ldrb	r3, [r3]
300011ac:	e353002d 	cmp	r3, #45	; 0x2d
300011b0:	1a000009 	bne	300011dc <simple_strtol+0x50>
300011b4:	e51b3008 	ldr	r3, [fp, #-8]
300011b8:	e2833001 	add	r3, r3, #1	; 0x1
300011bc:	e1a00003 	mov	r0, r3
300011c0:	e51b100c 	ldr	r1, [fp, #-12]
300011c4:	e51b2010 	ldr	r2, [fp, #-16]
300011c8:	ebffff65 	bl	30000f64 <simple_strtoul>
300011cc:	e1a03000 	mov	r3, r0
300011d0:	e2633000 	rsb	r3, r3, #0	; 0x0
300011d4:	e50b3014 	str	r3, [fp, #-20]
300011d8:	ea000005 	b	300011f4 <simple_strtol+0x68>
300011dc:	e51b0008 	ldr	r0, [fp, #-8]
300011e0:	e51b100c 	ldr	r1, [fp, #-12]
300011e4:	e51b2010 	ldr	r2, [fp, #-16]
300011e8:	ebffff5d 	bl	30000f64 <simple_strtoul>
300011ec:	e1a03000 	mov	r3, r0
300011f0:	e50b3014 	str	r3, [fp, #-20]
300011f4:	e51b3014 	ldr	r3, [fp, #-20]
300011f8:	e1a00003 	mov	r0, r3
300011fc:	e24bd004 	sub	sp, fp, #4	; 0x4
30001200:	e8bd4800 	pop	{fp, lr}
30001204:	e12fff1e 	bx	lr

30001208 <gets>:
30001208:	e92d4800 	push	{fp, lr}
3000120c:	e28db004 	add	fp, sp, #4	; 0x4
30001210:	e24dd010 	sub	sp, sp, #16	; 0x10
30001214:	e50b0010 	str	r0, [fp, #-16]
30001218:	e3a03000 	mov	r3, #0	; 0x0
3000121c:	e50b300c 	str	r3, [fp, #-12]
30001220:	eb0009a1 	bl	300038ac <getchar>
30001224:	e1a03000 	mov	r3, r0
30001228:	e54b3005 	strb	r3, [fp, #-5]
3000122c:	e55b3005 	ldrb	r3, [fp, #-5]
30001230:	e1a00003 	mov	r0, r3
30001234:	eb00097c 	bl	3000382c <putchar>
30001238:	e55b3005 	ldrb	r3, [fp, #-5]
3000123c:	e353000a 	cmp	r3, #10	; 0xa
30001240:	1a000002 	bne	30001250 <gets+0x48>
30001244:	e3a0000d 	mov	r0, #13	; 0xd
30001248:	eb000977 	bl	3000382c <putchar>
3000124c:	ea000004 	b	30001264 <gets+0x5c>
30001250:	e55b3005 	ldrb	r3, [fp, #-5]
30001254:	e353000d 	cmp	r3, #13	; 0xd
30001258:	1a000001 	bne	30001264 <gets+0x5c>
3000125c:	e3a0000a 	mov	r0, #10	; 0xa
30001260:	eb000971 	bl	3000382c <putchar>
30001264:	e55b3005 	ldrb	r3, [fp, #-5]
30001268:	e353000a 	cmp	r3, #10	; 0xa
3000126c:	0a000002 	beq	3000127c <gets+0x74>
30001270:	e55b3005 	ldrb	r3, [fp, #-5]
30001274:	e353000d 	cmp	r3, #13	; 0xd
30001278:	1a000009 	bne	300012a4 <gets+0x9c>
3000127c:	e51b200c 	ldr	r2, [fp, #-12]
30001280:	e51b3010 	ldr	r3, [fp, #-16]
30001284:	e0832002 	add	r2, r3, r2
30001288:	e3a03000 	mov	r3, #0	; 0x0
3000128c:	e5c23000 	strb	r3, [r2]
30001290:	e51b3010 	ldr	r3, [fp, #-16]
30001294:	e1a00003 	mov	r0, r3
30001298:	e24bd004 	sub	sp, fp, #4	; 0x4
3000129c:	e8bd4800 	pop	{fp, lr}
300012a0:	e12fff1e 	bx	lr
300012a4:	e51b200c 	ldr	r2, [fp, #-12]
300012a8:	e51b3010 	ldr	r3, [fp, #-16]
300012ac:	e0832002 	add	r2, r3, r2
300012b0:	e55b3005 	ldrb	r3, [fp, #-5]
300012b4:	e5c23000 	strb	r3, [r2]
300012b8:	e51b300c 	ldr	r3, [fp, #-12]
300012bc:	e2833001 	add	r3, r3, #1	; 0x1
300012c0:	e50b300c 	str	r3, [fp, #-12]
300012c4:	eaffffd5 	b	30001220 <gets+0x18>

300012c8 <get_int>:
300012c8:	e92d4800 	push	{fp, lr}
300012cc:	e28db004 	add	fp, sp, #4	; 0x4
300012d0:	e24dd068 	sub	sp, sp, #104	; 0x68
300012d4:	e24b3068 	sub	r3, fp, #104	; 0x68
300012d8:	e1a00003 	mov	r0, r3
300012dc:	ebffffc9 	bl	30001208 <gets>
300012e0:	e24b3068 	sub	r3, fp, #104	; 0x68
300012e4:	e1a00003 	mov	r0, r3
300012e8:	e3a01000 	mov	r1, #0	; 0x0
300012ec:	e3a02000 	mov	r2, #0	; 0x0
300012f0:	ebffffa5 	bl	3000118c <simple_strtol>
300012f4:	e1a03000 	mov	r3, r0
300012f8:	e1a00003 	mov	r0, r3
300012fc:	e24bd004 	sub	sp, fp, #4	; 0x4
30001300:	e8bd4800 	pop	{fp, lr}
30001304:	e12fff1e 	bx	lr

30001308 <get_uint>:
30001308:	e92d4800 	push	{fp, lr}
3000130c:	e28db004 	add	fp, sp, #4	; 0x4
30001310:	e24dd068 	sub	sp, sp, #104	; 0x68
30001314:	e24b3068 	sub	r3, fp, #104	; 0x68
30001318:	e1a00003 	mov	r0, r3
3000131c:	ebffffb9 	bl	30001208 <gets>
30001320:	e24b3068 	sub	r3, fp, #104	; 0x68
30001324:	e1a00003 	mov	r0, r3
30001328:	e3a01000 	mov	r1, #0	; 0x0
3000132c:	e3a02000 	mov	r2, #0	; 0x0
30001330:	ebffff0b 	bl	30000f64 <simple_strtoul>
30001334:	e1a03000 	mov	r3, r0
30001338:	e1a00003 	mov	r0, r3
3000133c:	e24bd004 	sub	sp, fp, #4	; 0x4
30001340:	e8bd4800 	pop	{fp, lr}
30001344:	e12fff1e 	bx	lr

30001348 <strcmp>:
30001348:	e52db004 	push	{fp}		; (str fp, [sp, #-4]!)
3000134c:	e28db000 	add	fp, sp, #0	; 0x0
30001350:	e24dd014 	sub	sp, sp, #20	; 0x14
30001354:	e50b0008 	str	r0, [fp, #-8]
30001358:	e50b100c 	str	r1, [fp, #-12]
3000135c:	e51b3008 	ldr	r3, [fp, #-8]
30001360:	e5d32000 	ldrb	r2, [r3]
30001364:	e51b300c 	ldr	r3, [fp, #-12]
30001368:	e5d33000 	ldrb	r3, [r3]
3000136c:	e0633002 	rsb	r3, r3, r2
30001370:	e20330ff 	and	r3, r3, #255	; 0xff
30001374:	e50b3010 	str	r3, [fp, #-16]
30001378:	e51b2010 	ldr	r2, [fp, #-16]
3000137c:	e1a03c02 	lsl	r3, r2, #24
30001380:	e1a03c43 	asr	r3, r3, #24
30001384:	e3530000 	cmp	r3, #0	; 0x0
30001388:	03a03000 	moveq	r3, #0	; 0x0
3000138c:	13a03001 	movne	r3, #1	; 0x1
30001390:	e20320ff 	and	r2, r3, #255	; 0xff
30001394:	e51b300c 	ldr	r3, [fp, #-12]
30001398:	e2833001 	add	r3, r3, #1	; 0x1
3000139c:	e50b300c 	str	r3, [fp, #-12]
300013a0:	e3520000 	cmp	r2, #0	; 0x0
300013a4:	1a00000a 	bne	300013d4 <strcmp+0x8c>
300013a8:	e51b3008 	ldr	r3, [fp, #-8]
300013ac:	e5d33000 	ldrb	r3, [r3]
300013b0:	e3530000 	cmp	r3, #0	; 0x0
300013b4:	13a03000 	movne	r3, #0	; 0x0
300013b8:	03a03001 	moveq	r3, #1	; 0x1
300013bc:	e20320ff 	and	r2, r3, #255	; 0xff
300013c0:	e51b3008 	ldr	r3, [fp, #-8]
300013c4:	e2833001 	add	r3, r3, #1	; 0x1
300013c8:	e50b3008 	str	r3, [fp, #-8]
300013cc:	e3520000 	cmp	r2, #0	; 0x0
300013d0:	0affffe1 	beq	3000135c <strcmp+0x14>
300013d4:	e51b2010 	ldr	r2, [fp, #-16]
300013d8:	e1a03c02 	lsl	r3, r2, #24
300013dc:	e1a03c43 	asr	r3, r3, #24
300013e0:	e1a00003 	mov	r0, r3
300013e4:	e28bd000 	add	sp, fp, #0	; 0x0
300013e8:	e8bd0800 	pop	{fp}
300013ec:	e12fff1e 	bx	lr

300013f0 <outc>:
300013f0:	e92d4800 	push	{fp, lr}
300013f4:	e28db004 	add	fp, sp, #4	; 0x4
300013f8:	e24dd008 	sub	sp, sp, #8	; 0x8
300013fc:	e50b0008 	str	r0, [fp, #-8]
30001400:	e51b0008 	ldr	r0, [fp, #-8]
30001404:	eb000908 	bl	3000382c <putchar>
30001408:	e3a03000 	mov	r3, #0	; 0x0
3000140c:	e1a00003 	mov	r0, r3
30001410:	e24bd004 	sub	sp, fp, #4	; 0x4
30001414:	e8bd4800 	pop	{fp, lr}
30001418:	e12fff1e 	bx	lr

3000141c <outs>:
3000141c:	e92d4800 	push	{fp, lr}
30001420:	e28db004 	add	fp, sp, #4	; 0x4
30001424:	e24dd008 	sub	sp, sp, #8	; 0x8
30001428:	e50b0008 	str	r0, [fp, #-8]
3000142c:	ea000007 	b	30001450 <outs+0x34>
30001430:	e51b3008 	ldr	r3, [fp, #-8]
30001434:	e5d33000 	ldrb	r3, [r3]
30001438:	e1a02003 	mov	r2, r3
3000143c:	e51b3008 	ldr	r3, [fp, #-8]
30001440:	e2833001 	add	r3, r3, #1	; 0x1
30001444:	e50b3008 	str	r3, [fp, #-8]
30001448:	e1a00002 	mov	r0, r2
3000144c:	eb0008f6 	bl	3000382c <putchar>
30001450:	e51b3008 	ldr	r3, [fp, #-8]
30001454:	e5d33000 	ldrb	r3, [r3]
30001458:	e3530000 	cmp	r3, #0	; 0x0
3000145c:	1afffff3 	bne	30001430 <outs+0x14>
30001460:	e3a03000 	mov	r3, #0	; 0x0
30001464:	e1a00003 	mov	r0, r3
30001468:	e24bd004 	sub	sp, fp, #4	; 0x4
3000146c:	e8bd4800 	pop	{fp, lr}
30001470:	e12fff1e 	bx	lr

30001474 <out_num>:
30001474:	e92d4800 	push	{fp, lr}
30001478:	e28db004 	add	fp, sp, #4	; 0x4
3000147c:	e24dd060 	sub	sp, sp, #96	; 0x60
30001480:	e50b0058 	str	r0, [fp, #-88]
30001484:	e50b105c 	str	r1, [fp, #-92]
30001488:	e50b3064 	str	r3, [fp, #-100]
3000148c:	e1a03002 	mov	r3, r2
30001490:	e54b305d 	strb	r3, [fp, #-93]
30001494:	e3a03000 	mov	r3, #0	; 0x0
30001498:	e50b3014 	str	r3, [fp, #-20]
3000149c:	e24b3054 	sub	r3, fp, #84	; 0x54
300014a0:	e2833040 	add	r3, r3, #64	; 0x40
300014a4:	e50b3010 	str	r3, [fp, #-16]
300014a8:	e3a03000 	mov	r3, #0	; 0x0
300014ac:	e50b300c 	str	r3, [fp, #-12]
300014b0:	e3a03000 	mov	r3, #0	; 0x0
300014b4:	e50b3008 	str	r3, [fp, #-8]
300014b8:	e51b3010 	ldr	r3, [fp, #-16]
300014bc:	e2433001 	sub	r3, r3, #1	; 0x1
300014c0:	e50b3010 	str	r3, [fp, #-16]
300014c4:	e51b2010 	ldr	r2, [fp, #-16]
300014c8:	e3a03000 	mov	r3, #0	; 0x0
300014cc:	e5c23000 	strb	r3, [r2]
300014d0:	e51b3058 	ldr	r3, [fp, #-88]
300014d4:	e3530000 	cmp	r3, #0	; 0x0
300014d8:	aa000003 	bge	300014ec <out_num+0x78>
300014dc:	e51b3058 	ldr	r3, [fp, #-88]
300014e0:	e2633000 	rsb	r3, r3, #0	; 0x0
300014e4:	e50b3014 	str	r3, [fp, #-20]
300014e8:	ea000001 	b	300014f4 <out_num+0x80>
300014ec:	e51b3058 	ldr	r3, [fp, #-88]
300014f0:	e50b3014 	str	r3, [fp, #-20]
300014f4:	e51b3010 	ldr	r3, [fp, #-16]
300014f8:	e2433001 	sub	r3, r3, #1	; 0x1
300014fc:	e50b3010 	str	r3, [fp, #-16]
30001500:	e51b205c 	ldr	r2, [fp, #-92]
30001504:	e51b3014 	ldr	r3, [fp, #-20]
30001508:	e1a00003 	mov	r0, r3
3000150c:	e1a01002 	mov	r1, r2
30001510:	eb000f0f 	bl	30005154 <__aeabi_uidivmod>
30001514:	e1a03001 	mov	r3, r1
30001518:	e1a02003 	mov	r2, r3
3000151c:	e59f30dc 	ldr	r3, [pc, #220]	; 30001600 <out_num+0x18c>
30001520:	e7d33002 	ldrb	r3, [r3, r2]
30001524:	e51b2010 	ldr	r2, [fp, #-16]
30001528:	e5c23000 	strb	r3, [r2]
3000152c:	e51b300c 	ldr	r3, [fp, #-12]
30001530:	e2833001 	add	r3, r3, #1	; 0x1
30001534:	e50b300c 	str	r3, [fp, #-12]
30001538:	e51b205c 	ldr	r2, [fp, #-92]
3000153c:	e51b3014 	ldr	r3, [fp, #-20]
30001540:	e1a00003 	mov	r0, r3
30001544:	e1a01002 	mov	r1, r2
30001548:	eb000ec4 	bl	30005060 <__aeabi_uidiv>
3000154c:	e1a03000 	mov	r3, r0
30001550:	e50b3014 	str	r3, [fp, #-20]
30001554:	e51b3014 	ldr	r3, [fp, #-20]
30001558:	e3530000 	cmp	r3, #0	; 0x0
3000155c:	1affffe4 	bne	300014f4 <out_num+0x80>
30001560:	e51b3064 	ldr	r3, [fp, #-100]
30001564:	e3530000 	cmp	r3, #0	; 0x0
30001568:	0a000014 	beq	300015c0 <out_num+0x14c>
3000156c:	e51b200c 	ldr	r2, [fp, #-12]
30001570:	e51b3064 	ldr	r3, [fp, #-100]
30001574:	e1520003 	cmp	r2, r3
30001578:	aa000010 	bge	300015c0 <out_num+0x14c>
3000157c:	e51b3064 	ldr	r3, [fp, #-100]
30001580:	e51b200c 	ldr	r2, [fp, #-12]
30001584:	e0623003 	rsb	r3, r2, r3
30001588:	e50b3008 	str	r3, [fp, #-8]
3000158c:	ea000008 	b	300015b4 <out_num+0x140>
30001590:	e51b3010 	ldr	r3, [fp, #-16]
30001594:	e2433001 	sub	r3, r3, #1	; 0x1
30001598:	e50b3010 	str	r3, [fp, #-16]
3000159c:	e51b2010 	ldr	r2, [fp, #-16]
300015a0:	e55b305d 	ldrb	r3, [fp, #-93]
300015a4:	e5c23000 	strb	r3, [r2]
300015a8:	e51b3008 	ldr	r3, [fp, #-8]
300015ac:	e2433001 	sub	r3, r3, #1	; 0x1
300015b0:	e50b3008 	str	r3, [fp, #-8]
300015b4:	e51b3008 	ldr	r3, [fp, #-8]
300015b8:	e3530000 	cmp	r3, #0	; 0x0
300015bc:	1afffff3 	bne	30001590 <out_num+0x11c>
300015c0:	e51b3058 	ldr	r3, [fp, #-88]
300015c4:	e3530000 	cmp	r3, #0	; 0x0
300015c8:	aa000005 	bge	300015e4 <out_num+0x170>
300015cc:	e51b3010 	ldr	r3, [fp, #-16]
300015d0:	e2433001 	sub	r3, r3, #1	; 0x1
300015d4:	e50b3010 	str	r3, [fp, #-16]
300015d8:	e51b2010 	ldr	r2, [fp, #-16]
300015dc:	e3a0302d 	mov	r3, #45	; 0x2d
300015e0:	e5c23000 	strb	r3, [r2]
300015e4:	e51b0010 	ldr	r0, [fp, #-16]
300015e8:	ebffff8b 	bl	3000141c <outs>
300015ec:	e1a03000 	mov	r3, r0
300015f0:	e1a00003 	mov	r0, r3
300015f4:	e24bd004 	sub	sp, fp, #4	; 0x4
300015f8:	e8bd4800 	pop	{fp, lr}
300015fc:	e12fff1e 	bx	lr
30001600:	300067e4 	.word	0x300067e4

30001604 <my_vprintf>:
30001604:	e92d4800 	push	{fp, lr}
30001608:	e28db004 	add	fp, sp, #4	; 0x4
3000160c:	e24dd010 	sub	sp, sp, #16	; 0x10
30001610:	e50b0010 	str	r0, [fp, #-16]
30001614:	e50b1014 	str	r1, [fp, #-20]
30001618:	e3a03020 	mov	r3, #32	; 0x20
3000161c:	e54b3009 	strb	r3, [fp, #-9]
30001620:	e3a03000 	mov	r3, #0	; 0x0
30001624:	e50b3008 	str	r3, [fp, #-8]
30001628:	ea000094 	b	30001880 <my_vprintf+0x27c>
3000162c:	e51b3010 	ldr	r3, [fp, #-16]
30001630:	e5d33000 	ldrb	r3, [r3]
30001634:	e3530025 	cmp	r3, #37	; 0x25
30001638:	0a000004 	beq	30001650 <my_vprintf+0x4c>
3000163c:	e51b3010 	ldr	r3, [fp, #-16]
30001640:	e5d33000 	ldrb	r3, [r3]
30001644:	e1a00003 	mov	r0, r3
30001648:	ebffff68 	bl	300013f0 <outc>
3000164c:	ea000088 	b	30001874 <my_vprintf+0x270>
30001650:	e3a03020 	mov	r3, #32	; 0x20
30001654:	e54b3009 	strb	r3, [fp, #-9]
30001658:	e3a03000 	mov	r3, #0	; 0x0
3000165c:	e50b3008 	str	r3, [fp, #-8]
30001660:	e51b3010 	ldr	r3, [fp, #-16]
30001664:	e2833001 	add	r3, r3, #1	; 0x1
30001668:	e50b3010 	str	r3, [fp, #-16]
3000166c:	e51b3010 	ldr	r3, [fp, #-16]
30001670:	e5d33000 	ldrb	r3, [r3]
30001674:	e3530030 	cmp	r3, #48	; 0x30
30001678:	1a000013 	bne	300016cc <my_vprintf+0xc8>
3000167c:	e3a03030 	mov	r3, #48	; 0x30
30001680:	e54b3009 	strb	r3, [fp, #-9]
30001684:	e51b3010 	ldr	r3, [fp, #-16]
30001688:	e2833001 	add	r3, r3, #1	; 0x1
3000168c:	e50b3010 	str	r3, [fp, #-16]
30001690:	ea00000d 	b	300016cc <my_vprintf+0xc8>
30001694:	e51b3008 	ldr	r3, [fp, #-8]
30001698:	e1a02083 	lsl	r2, r3, #1
3000169c:	e1a03102 	lsl	r3, r2, #2
300016a0:	e0823003 	add	r3, r2, r3
300016a4:	e50b3008 	str	r3, [fp, #-8]
300016a8:	e51b3010 	ldr	r3, [fp, #-16]
300016ac:	e5d33000 	ldrb	r3, [r3]
300016b0:	e2432030 	sub	r2, r3, #48	; 0x30
300016b4:	e51b3008 	ldr	r3, [fp, #-8]
300016b8:	e0833002 	add	r3, r3, r2
300016bc:	e50b3008 	str	r3, [fp, #-8]
300016c0:	e51b3010 	ldr	r3, [fp, #-16]
300016c4:	e2833001 	add	r3, r3, #1	; 0x1
300016c8:	e50b3010 	str	r3, [fp, #-16]
300016cc:	e51b3010 	ldr	r3, [fp, #-16]
300016d0:	e5d33000 	ldrb	r3, [r3]
300016d4:	e353002f 	cmp	r3, #47	; 0x2f
300016d8:	9a000003 	bls	300016ec <my_vprintf+0xe8>
300016dc:	e51b3010 	ldr	r3, [fp, #-16]
300016e0:	e5d33000 	ldrb	r3, [r3]
300016e4:	e3530039 	cmp	r3, #57	; 0x39
300016e8:	9affffe9 	bls	30001694 <my_vprintf+0x90>
300016ec:	e51b3010 	ldr	r3, [fp, #-16]
300016f0:	e5d33000 	ldrb	r3, [r3]
300016f4:	e2433063 	sub	r3, r3, #99	; 0x63
300016f8:	e3530015 	cmp	r3, #21	; 0x15
300016fc:	979ff103 	ldrls	pc, [pc, r3, lsl #2]
30001700:	ea000057 	b	30001864 <my_vprintf+0x260>
30001704:	3000181c 	.word	0x3000181c
30001708:	3000175c 	.word	0x3000175c
3000170c:	30001864 	.word	0x30001864
30001710:	30001864 	.word	0x30001864
30001714:	30001864 	.word	0x30001864
30001718:	30001864 	.word	0x30001864
3000171c:	30001864 	.word	0x30001864
30001720:	30001864 	.word	0x30001864
30001724:	30001864 	.word	0x30001864
30001728:	30001864 	.word	0x30001864
3000172c:	30001864 	.word	0x30001864
30001730:	30001864 	.word	0x30001864
30001734:	3000178c 	.word	0x3000178c
30001738:	30001864 	.word	0x30001864
3000173c:	30001864 	.word	0x30001864
30001740:	30001864 	.word	0x30001864
30001744:	30001840 	.word	0x30001840
30001748:	30001864 	.word	0x30001864
3000174c:	300017bc 	.word	0x300017bc
30001750:	30001864 	.word	0x30001864
30001754:	30001864 	.word	0x30001864
30001758:	300017ec 	.word	0x300017ec
3000175c:	e51b3014 	ldr	r3, [fp, #-20]
30001760:	e2833004 	add	r3, r3, #4	; 0x4
30001764:	e50b3014 	str	r3, [fp, #-20]
30001768:	e51b3014 	ldr	r3, [fp, #-20]
3000176c:	e2433004 	sub	r3, r3, #4	; 0x4
30001770:	e5933000 	ldr	r3, [r3]
30001774:	e55b2009 	ldrb	r2, [fp, #-9]
30001778:	e1a00003 	mov	r0, r3
3000177c:	e3a0100a 	mov	r1, #10	; 0xa
30001780:	e51b3008 	ldr	r3, [fp, #-8]
30001784:	ebffff3a 	bl	30001474 <out_num>
30001788:	ea000039 	b	30001874 <my_vprintf+0x270>
3000178c:	e51b3014 	ldr	r3, [fp, #-20]
30001790:	e2833004 	add	r3, r3, #4	; 0x4
30001794:	e50b3014 	str	r3, [fp, #-20]
30001798:	e51b3014 	ldr	r3, [fp, #-20]
3000179c:	e2433004 	sub	r3, r3, #4	; 0x4
300017a0:	e5933000 	ldr	r3, [r3]
300017a4:	e55b2009 	ldrb	r2, [fp, #-9]
300017a8:	e1a00003 	mov	r0, r3
300017ac:	e3a01008 	mov	r1, #8	; 0x8
300017b0:	e51b3008 	ldr	r3, [fp, #-8]
300017b4:	ebffff2e 	bl	30001474 <out_num>
300017b8:	ea00002d 	b	30001874 <my_vprintf+0x270>
300017bc:	e51b3014 	ldr	r3, [fp, #-20]
300017c0:	e2833004 	add	r3, r3, #4	; 0x4
300017c4:	e50b3014 	str	r3, [fp, #-20]
300017c8:	e51b3014 	ldr	r3, [fp, #-20]
300017cc:	e2433004 	sub	r3, r3, #4	; 0x4
300017d0:	e5933000 	ldr	r3, [r3]
300017d4:	e55b2009 	ldrb	r2, [fp, #-9]
300017d8:	e1a00003 	mov	r0, r3
300017dc:	e3a0100a 	mov	r1, #10	; 0xa
300017e0:	e51b3008 	ldr	r3, [fp, #-8]
300017e4:	ebffff22 	bl	30001474 <out_num>
300017e8:	ea000021 	b	30001874 <my_vprintf+0x270>
300017ec:	e51b3014 	ldr	r3, [fp, #-20]
300017f0:	e2833004 	add	r3, r3, #4	; 0x4
300017f4:	e50b3014 	str	r3, [fp, #-20]
300017f8:	e51b3014 	ldr	r3, [fp, #-20]
300017fc:	e2433004 	sub	r3, r3, #4	; 0x4
30001800:	e5933000 	ldr	r3, [r3]
30001804:	e55b2009 	ldrb	r2, [fp, #-9]
30001808:	e1a00003 	mov	r0, r3
3000180c:	e3a01010 	mov	r1, #16	; 0x10
30001810:	e51b3008 	ldr	r3, [fp, #-8]
30001814:	ebffff16 	bl	30001474 <out_num>
30001818:	ea000015 	b	30001874 <my_vprintf+0x270>
3000181c:	e51b3014 	ldr	r3, [fp, #-20]
30001820:	e2833004 	add	r3, r3, #4	; 0x4
30001824:	e50b3014 	str	r3, [fp, #-20]
30001828:	e51b3014 	ldr	r3, [fp, #-20]
3000182c:	e2433004 	sub	r3, r3, #4	; 0x4
30001830:	e5933000 	ldr	r3, [r3]
30001834:	e1a00003 	mov	r0, r3
30001838:	ebfffeec 	bl	300013f0 <outc>
3000183c:	ea00000c 	b	30001874 <my_vprintf+0x270>
30001840:	e51b3014 	ldr	r3, [fp, #-20]
30001844:	e2833004 	add	r3, r3, #4	; 0x4
30001848:	e50b3014 	str	r3, [fp, #-20]
3000184c:	e51b3014 	ldr	r3, [fp, #-20]
30001850:	e2433004 	sub	r3, r3, #4	; 0x4
30001854:	e5933000 	ldr	r3, [r3]
30001858:	e1a00003 	mov	r0, r3
3000185c:	ebfffeee 	bl	3000141c <outs>
30001860:	ea000003 	b	30001874 <my_vprintf+0x270>
30001864:	e51b3010 	ldr	r3, [fp, #-16]
30001868:	e5d33000 	ldrb	r3, [r3]
3000186c:	e1a00003 	mov	r0, r3
30001870:	ebfffede 	bl	300013f0 <outc>
30001874:	e51b3010 	ldr	r3, [fp, #-16]
30001878:	e2833001 	add	r3, r3, #1	; 0x1
3000187c:	e50b3010 	str	r3, [fp, #-16]
30001880:	e51b3010 	ldr	r3, [fp, #-16]
30001884:	e5d33000 	ldrb	r3, [r3]
30001888:	e3530000 	cmp	r3, #0	; 0x0
3000188c:	1affff66 	bne	3000162c <my_vprintf+0x28>
30001890:	e3a03000 	mov	r3, #0	; 0x0
30001894:	e1a00003 	mov	r0, r3
30001898:	e24bd004 	sub	sp, fp, #4	; 0x4
3000189c:	e8bd4800 	pop	{fp, lr}
300018a0:	e12fff1e 	bx	lr

300018a4 <raise>:
300018a4:	e52db004 	push	{fp}		; (str fp, [sp, #-4]!)
300018a8:	e28db000 	add	fp, sp, #0	; 0x0
300018ac:	e24dd00c 	sub	sp, sp, #12	; 0xc
300018b0:	e50b0008 	str	r0, [fp, #-8]
300018b4:	e3a03000 	mov	r3, #0	; 0x0
300018b8:	e1a00003 	mov	r0, r3
300018bc:	e28bd000 	add	sp, fp, #0	; 0x0
300018c0:	e8bd0800 	pop	{fp}
300018c4:	e12fff1e 	bx	lr

300018c8 <printf>:
300018c8:	e92d000f 	push	{r0, r1, r2, r3}
300018cc:	e92d4800 	push	{fp, lr}
300018d0:	e28db004 	add	fp, sp, #4	; 0x4
300018d4:	e24dd008 	sub	sp, sp, #8	; 0x8
300018d8:	e28b3004 	add	r3, fp, #4	; 0x4
300018dc:	e2833004 	add	r3, r3, #4	; 0x4
300018e0:	e50b3008 	str	r3, [fp, #-8]
300018e4:	e59b3004 	ldr	r3, [fp, #4]
300018e8:	e1a00003 	mov	r0, r3
300018ec:	e51b1008 	ldr	r1, [fp, #-8]
300018f0:	ebffff43 	bl	30001604 <my_vprintf>
300018f4:	e3a03000 	mov	r3, #0	; 0x0
300018f8:	e50b3008 	str	r3, [fp, #-8]
300018fc:	e3a03000 	mov	r3, #0	; 0x0
30001900:	e1a00003 	mov	r0, r3
30001904:	e24bd004 	sub	sp, fp, #4	; 0x4
30001908:	e8bd4800 	pop	{fp, lr}
3000190c:	e28dd010 	add	sp, sp, #16	; 0x10
30001910:	e12fff1e 	bx	lr

30001914 <inierript_config>:
30001914:	e52db004 	push	{fp}		; (str fp, [sp, #-4]!)
30001918:	e28db000 	add	fp, sp, #0	; 0x0
3000191c:	e24dd00c 	sub	sp, sp, #12	; 0xc
30001920:	e28bd000 	add	sp, fp, #0	; 0x0
30001924:	e8bd0800 	pop	{fp}
30001928:	e12fff1e 	bx	lr

3000192c <init_key_st>:
3000192c:	e52db004 	push	{fp}		; (str fp, [sp, #-4]!)
30001930:	e28db000 	add	fp, sp, #0	; 0x0
30001934:	e24dd014 	sub	sp, sp, #20	; 0x14
30001938:	e50b0008 	str	r0, [fp, #-8]
3000193c:	e50b100c 	str	r1, [fp, #-12]
30001940:	e50b2010 	str	r2, [fp, #-16]
30001944:	e51b3008 	ldr	r3, [fp, #-8]
30001948:	e59f1050 	ldr	r1, [pc, #80]	; 300019a0 <init_key_st+0x74>
3000194c:	e1a03083 	lsl	r3, r3, #1
30001950:	e2832001 	add	r2, r3, #1	; 0x1
30001954:	e51b300c 	ldr	r3, [fp, #-12]
30001958:	e7813182 	str	r3, [r1, r2, lsl #3]
3000195c:	e51b3008 	ldr	r3, [fp, #-8]
30001960:	e59f1038 	ldr	r1, [pc, #56]	; 300019a0 <init_key_st+0x74>
30001964:	e1a03083 	lsl	r3, r3, #1
30001968:	e2833001 	add	r3, r3, #1	; 0x1
3000196c:	e3a02004 	mov	r2, #4	; 0x4
30001970:	e1a03183 	lsl	r3, r3, #3
30001974:	e0813003 	add	r3, r1, r3
30001978:	e0832002 	add	r2, r3, r2
3000197c:	e51b3010 	ldr	r3, [fp, #-16]
30001980:	e5823000 	str	r3, [r2]
30001984:	e51b1008 	ldr	r1, [fp, #-8]
30001988:	e59f2010 	ldr	r2, [pc, #16]	; 300019a0 <init_key_st+0x74>
3000198c:	e3a03000 	mov	r3, #0	; 0x0
30001990:	e7823201 	str	r3, [r2, r1, lsl #4]
30001994:	e28bd000 	add	sp, fp, #0	; 0x0
30001998:	e8bd0800 	pop	{fp}
3000199c:	e12fff1e 	bx	lr
300019a0:	30006954 	.word	0x30006954

300019a4 <key_config>:
300019a4:	e92d4800 	push	{fp, lr}
300019a8:	e28db004 	add	fp, sp, #4	; 0x4
300019ac:	e24dd008 	sub	sp, sp, #8	; 0x8
300019b0:	e3a00000 	mov	r0, #0	; 0x0
300019b4:	e3a01456 	mov	r1, #1442840576	; 0x56000000
300019b8:	e2811054 	add	r1, r1, #84	; 0x54
300019bc:	e3a02000 	mov	r2, #0	; 0x0
300019c0:	ebffffd9 	bl	3000192c <init_key_st>
300019c4:	e3a00001 	mov	r0, #1	; 0x1
300019c8:	e3a01456 	mov	r1, #1442840576	; 0x56000000
300019cc:	e2811054 	add	r1, r1, #84	; 0x54
300019d0:	e3a02002 	mov	r2, #2	; 0x2
300019d4:	ebffffd4 	bl	3000192c <init_key_st>
300019d8:	e3a00002 	mov	r0, #2	; 0x2
300019dc:	e3a01456 	mov	r1, #1442840576	; 0x56000000
300019e0:	e2811064 	add	r1, r1, #100	; 0x64
300019e4:	e3a02003 	mov	r2, #3	; 0x3
300019e8:	ebffffcf 	bl	3000192c <init_key_st>
300019ec:	e3a00456 	mov	r0, #1442840576	; 0x56000000
300019f0:	e2800050 	add	r0, r0, #80	; 0x50
300019f4:	e3a01033 	mov	r1, #51	; 0x33
300019f8:	e3a02022 	mov	r2, #34	; 0x22
300019fc:	eb000cac 	bl	30004cb4 <gpio_set>
30001a00:	e1a03000 	mov	r3, r0
30001a04:	e3730001 	cmn	r3, #1	; 0x1
30001a08:	1a000002 	bne	30001a18 <key_config+0x74>
30001a0c:	e3e03000 	mvn	r3, #0	; 0x0
30001a10:	e50b3008 	str	r3, [fp, #-8]
30001a14:	ea000048 	b	30001b3c <key_config+0x198>
30001a18:	e3a00456 	mov	r0, #1442840576	; 0x56000000
30001a1c:	e2800060 	add	r0, r0, #96	; 0x60
30001a20:	e3a01503 	mov	r1, #12582912	; 0xc00000
30001a24:	e28110c0 	add	r1, r1, #192	; 0xc0
30001a28:	e3a02502 	mov	r2, #8388608	; 0x800000
30001a2c:	e2822080 	add	r2, r2, #128	; 0x80
30001a30:	eb000c9f 	bl	30004cb4 <gpio_set>
30001a34:	e1a03000 	mov	r3, r0
30001a38:	e3730001 	cmn	r3, #1	; 0x1
30001a3c:	1a000002 	bne	30001a4c <key_config+0xa8>
30001a40:	e3e03000 	mvn	r3, #0	; 0x0
30001a44:	e50b3008 	str	r3, [fp, #-8]
30001a48:	ea00003b 	b	30001b3c <key_config+0x198>
30001a4c:	e3a00456 	mov	r0, #1442840576	; 0x56000000
30001a50:	e2800088 	add	r0, r0, #136	; 0x88
30001a54:	e3a01c07 	mov	r1, #1792	; 0x700
30001a58:	e2811007 	add	r1, r1, #7	; 0x7
30001a5c:	e3a02c07 	mov	r2, #1792	; 0x700
30001a60:	e2822007 	add	r2, r2, #7	; 0x7
30001a64:	eb000c92 	bl	30004cb4 <gpio_set>
30001a68:	e1a03000 	mov	r3, r0
30001a6c:	e3730001 	cmn	r3, #1	; 0x1
30001a70:	1a000002 	bne	30001a80 <key_config+0xdc>
30001a74:	e3e03000 	mvn	r3, #0	; 0x0
30001a78:	e50b3008 	str	r3, [fp, #-8]
30001a7c:	ea00002e 	b	30001b3c <key_config+0x198>
30001a80:	e3a00456 	mov	r0, #1442840576	; 0x56000000
30001a84:	e280008c 	add	r0, r0, #140	; 0x8c
30001a88:	e3a01a07 	mov	r1, #28672	; 0x7000
30001a8c:	e3a02a07 	mov	r2, #28672	; 0x7000
30001a90:	eb000c87 	bl	30004cb4 <gpio_set>
30001a94:	e1a03000 	mov	r3, r0
30001a98:	e3730001 	cmn	r3, #1	; 0x1
30001a9c:	1a000002 	bne	30001aac <key_config+0x108>
30001aa0:	e3e03000 	mvn	r3, #0	; 0x0
30001aa4:	e50b3008 	str	r3, [fp, #-8]
30001aa8:	ea000023 	b	30001b3c <key_config+0x198>
30001aac:	e3a00456 	mov	r0, #1442840576	; 0x56000000
30001ab0:	e2800090 	add	r0, r0, #144	; 0x90
30001ab4:	e3a01a07 	mov	r1, #28672	; 0x7000
30001ab8:	e3a02a07 	mov	r2, #28672	; 0x7000
30001abc:	eb000c7c 	bl	30004cb4 <gpio_set>
30001ac0:	e1a03000 	mov	r3, r0
30001ac4:	e3730001 	cmn	r3, #1	; 0x1
30001ac8:	1a000002 	bne	30001ad8 <key_config+0x134>
30001acc:	e3e03000 	mvn	r3, #0	; 0x0
30001ad0:	e50b3008 	str	r3, [fp, #-8]
30001ad4:	ea000018 	b	30001b3c <key_config+0x198>
30001ad8:	e3a00456 	mov	r0, #1442840576	; 0x56000000
30001adc:	e28000a4 	add	r0, r0, #164	; 0xa4
30001ae0:	e3a01702 	mov	r1, #524288	; 0x80000
30001ae4:	e2811b02 	add	r1, r1, #2048	; 0x800
30001ae8:	e3a02000 	mov	r2, #0	; 0x0
30001aec:	eb000c70 	bl	30004cb4 <gpio_set>
30001af0:	e1a03000 	mov	r3, r0
30001af4:	e3730001 	cmn	r3, #1	; 0x1
30001af8:	1a000002 	bne	30001b08 <key_config+0x164>
30001afc:	e3e03000 	mvn	r3, #0	; 0x0
30001b00:	e50b3008 	str	r3, [fp, #-8]
30001b04:	ea00000c 	b	30001b3c <key_config+0x198>
30001b08:	e3a0044a 	mov	r0, #1241513984	; 0x4a000000
30001b0c:	e2800008 	add	r0, r0, #8	; 0x8
30001b10:	e3a01025 	mov	r1, #37	; 0x25
30001b14:	e3a02000 	mov	r2, #0	; 0x0
30001b18:	eb000c65 	bl	30004cb4 <gpio_set>
30001b1c:	e1a03000 	mov	r3, r0
30001b20:	e3730001 	cmn	r3, #1	; 0x1
30001b24:	1a000002 	bne	30001b34 <key_config+0x190>
30001b28:	e3e03000 	mvn	r3, #0	; 0x0
30001b2c:	e50b3008 	str	r3, [fp, #-8]
30001b30:	ea000001 	b	30001b3c <key_config+0x198>
30001b34:	e3a03000 	mov	r3, #0	; 0x0
30001b38:	e50b3008 	str	r3, [fp, #-8]
30001b3c:	e51b3008 	ldr	r3, [fp, #-8]
30001b40:	e1a00003 	mov	r0, r3
30001b44:	e24bd004 	sub	sp, fp, #4	; 0x4
30001b48:	e8bd4800 	pop	{fp, lr}
30001b4c:	e12fff1e 	bx	lr

30001b50 <get_event>:
30001b50:	e92d4810 	push	{r4, fp, lr}
30001b54:	e28db008 	add	fp, sp, #8	; 0x8
30001b58:	e24dd014 	sub	sp, sp, #20	; 0x14
30001b5c:	e3a03000 	mov	r3, #0	; 0x0
30001b60:	e50b3010 	str	r3, [fp, #-16]
30001b64:	e3a03000 	mov	r3, #0	; 0x0
30001b68:	e50b3010 	str	r3, [fp, #-16]
30001b6c:	ea000030 	b	30001c34 <get_event+0xe4>
30001b70:	e51b2010 	ldr	r2, [fp, #-16]
30001b74:	e59f30e0 	ldr	r3, [pc, #224]	; 30001c5c <get_event+0x10c>
30001b78:	e7934202 	ldr	r4, [r3, r2, lsl #4]
30001b7c:	e51b3010 	ldr	r3, [fp, #-16]
30001b80:	e59f20d4 	ldr	r2, [pc, #212]	; 30001c5c <get_event+0x10c>
30001b84:	e1a03083 	lsl	r3, r3, #1
30001b88:	e2833001 	add	r3, r3, #1	; 0x1
30001b8c:	e7920183 	ldr	r0, [r2, r3, lsl #3]
30001b90:	e51b3010 	ldr	r3, [fp, #-16]
30001b94:	e59f10c0 	ldr	r1, [pc, #192]	; 30001c5c <get_event+0x10c>
30001b98:	e1a03083 	lsl	r3, r3, #1
30001b9c:	e2833001 	add	r3, r3, #1	; 0x1
30001ba0:	e3a02004 	mov	r2, #4	; 0x4
30001ba4:	e1a03183 	lsl	r3, r3, #3
30001ba8:	e0813003 	add	r3, r1, r3
30001bac:	e0833002 	add	r3, r3, r2
30001bb0:	e5933000 	ldr	r3, [r3]
30001bb4:	e1a01003 	mov	r1, r3
30001bb8:	eb000028 	bl	30001c60 <get_gpio>
30001bbc:	e1a03000 	mov	r3, r0
30001bc0:	e1540003 	cmp	r4, r3
30001bc4:	1a000017 	bne	30001c28 <get_event+0xd8>
30001bc8:	e51b1010 	ldr	r1, [fp, #-16]
30001bcc:	e51b2010 	ldr	r2, [fp, #-16]
30001bd0:	e59f3084 	ldr	r3, [pc, #132]	; 30001c5c <get_event+0x10c>
30001bd4:	e7933202 	ldr	r3, [r3, r2, lsl #4]
30001bd8:	e3530000 	cmp	r3, #0	; 0x0
30001bdc:	13a02000 	movne	r2, #0	; 0x0
30001be0:	03a02001 	moveq	r2, #1	; 0x1
30001be4:	e59f3070 	ldr	r3, [pc, #112]	; 30001c5c <get_event+0x10c>
30001be8:	e7832201 	str	r2, [r3, r1, lsl #4]
30001bec:	e51b2010 	ldr	r2, [fp, #-16]
30001bf0:	e59f3064 	ldr	r3, [pc, #100]	; 30001c5c <get_event+0x10c>
30001bf4:	e7933202 	ldr	r3, [r3, r2, lsl #4]
30001bf8:	e3530000 	cmp	r3, #0	; 0x0
30001bfc:	0a000003 	beq	30001c10 <get_event+0xc0>
30001c00:	e51b3010 	ldr	r3, [fp, #-16]
30001c04:	e2833001 	add	r3, r3, #1	; 0x1
30001c08:	e50b3018 	str	r3, [fp, #-24]
30001c0c:	ea000002 	b	30001c1c <get_event+0xcc>
30001c10:	e51b3010 	ldr	r3, [fp, #-16]
30001c14:	e1e03003 	mvn	r3, r3
30001c18:	e50b3018 	str	r3, [fp, #-24]
30001c1c:	e51b3018 	ldr	r3, [fp, #-24]
30001c20:	e50b301c 	str	r3, [fp, #-28]
30001c24:	ea000007 	b	30001c48 <get_event+0xf8>
30001c28:	e51b3010 	ldr	r3, [fp, #-16]
30001c2c:	e2833001 	add	r3, r3, #1	; 0x1
30001c30:	e50b3010 	str	r3, [fp, #-16]
30001c34:	e51b3010 	ldr	r3, [fp, #-16]
30001c38:	e3530002 	cmp	r3, #2	; 0x2
30001c3c:	daffffcb 	ble	30001b70 <get_event+0x20>
30001c40:	e3a03000 	mov	r3, #0	; 0x0
30001c44:	e50b301c 	str	r3, [fp, #-28]
30001c48:	e51b301c 	ldr	r3, [fp, #-28]
30001c4c:	e1a00003 	mov	r0, r3
30001c50:	e24bd008 	sub	sp, fp, #8	; 0x8
30001c54:	e8bd4810 	pop	{r4, fp, lr}
30001c58:	e12fff1e 	bx	lr
30001c5c:	30006954 	.word	0x30006954

30001c60 <get_gpio>:
30001c60:	e52db004 	push	{fp}		; (str fp, [sp, #-4]!)
30001c64:	e28db000 	add	fp, sp, #0	; 0x0
30001c68:	e24dd00c 	sub	sp, sp, #12	; 0xc
30001c6c:	e50b0008 	str	r0, [fp, #-8]
30001c70:	e50b100c 	str	r1, [fp, #-12]
30001c74:	e51b3008 	ldr	r3, [fp, #-8]
30001c78:	e5932000 	ldr	r2, [r3]
30001c7c:	e51b300c 	ldr	r3, [fp, #-12]
30001c80:	e1a03332 	lsr	r3, r2, r3
30001c84:	e2033001 	and	r3, r3, #1	; 0x1
30001c88:	e1a00003 	mov	r0, r3
30001c8c:	e28bd000 	add	sp, fp, #0	; 0x0
30001c90:	e8bd0800 	pop	{fp}
30001c94:	e12fff1e 	bx	lr

30001c98 <key_read>:
30001c98:	e92d4800 	push	{fp, lr}
30001c9c:	e28db004 	add	fp, sp, #4	; 0x4
30001ca0:	e24dd018 	sub	sp, sp, #24	; 0x18
30001ca4:	e50b0010 	str	r0, [fp, #-16]
30001ca8:	ebffffa8 	bl	30001b50 <get_event>
30001cac:	e1a03000 	mov	r3, r0
30001cb0:	e50b300c 	str	r3, [fp, #-12]
30001cb4:	e51b300c 	ldr	r3, [fp, #-12]
30001cb8:	e3530000 	cmp	r3, #0	; 0x0
30001cbc:	0a000020 	beq	30001d44 <key_read+0xac>
30001cc0:	e51b300c 	ldr	r3, [fp, #-12]
30001cc4:	e3530000 	cmp	r3, #0	; 0x0
30001cc8:	da000009 	ble	30001cf4 <key_read+0x5c>
30001ccc:	e51b300c 	ldr	r3, [fp, #-12]
30001cd0:	e2433001 	sub	r3, r3, #1	; 0x1
30001cd4:	e59f2150 	ldr	r2, [pc, #336]	; 30001e2c <key_read+0x194>
30001cd8:	e3a01004 	mov	r1, #4	; 0x4
30001cdc:	e1a03203 	lsl	r3, r3, #4
30001ce0:	e0823003 	add	r3, r2, r3
30001ce4:	e0832001 	add	r2, r3, r1
30001ce8:	e3a03000 	mov	r3, #0	; 0x0
30001cec:	e5823000 	str	r3, [r2]
30001cf0:	ea000013 	b	30001d44 <key_read+0xac>
30001cf4:	e51b300c 	ldr	r3, [fp, #-12]
30001cf8:	e3530000 	cmp	r3, #0	; 0x0
30001cfc:	aa000010 	bge	30001d44 <key_read+0xac>
30001d00:	e51b3010 	ldr	r3, [fp, #-16]
30001d04:	e3530000 	cmp	r3, #0	; 0x0
30001d08:	1a00000d 	bne	30001d44 <key_read+0xac>
30001d0c:	e51b300c 	ldr	r3, [fp, #-12]
30001d10:	e1e03003 	mvn	r3, r3
30001d14:	e59f2110 	ldr	r2, [pc, #272]	; 30001e2c <key_read+0x194>
30001d18:	e3a01004 	mov	r1, #4	; 0x4
30001d1c:	e1a03203 	lsl	r3, r3, #4
30001d20:	e0823003 	add	r3, r2, r3
30001d24:	e0833001 	add	r3, r3, r1
30001d28:	e5933000 	ldr	r3, [r3]
30001d2c:	e3530009 	cmp	r3, #9	; 0x9
30001d30:	da000003 	ble	30001d44 <key_read+0xac>
30001d34:	e51b300c 	ldr	r3, [fp, #-12]
30001d38:	e1e03003 	mvn	r3, r3
30001d3c:	e50b3014 	str	r3, [fp, #-20]
30001d40:	ea000033 	b	30001e14 <key_read+0x17c>
30001d44:	e3a03000 	mov	r3, #0	; 0x0
30001d48:	e50b3008 	str	r3, [fp, #-8]
30001d4c:	ea00002c 	b	30001e04 <key_read+0x16c>
30001d50:	e51b3008 	ldr	r3, [fp, #-8]
30001d54:	e59f20d0 	ldr	r2, [pc, #208]	; 30001e2c <key_read+0x194>
30001d58:	e7923203 	ldr	r3, [r2, r3, lsl #4]
30001d5c:	e3530000 	cmp	r3, #0	; 0x0
30001d60:	0a000024 	beq	30001df8 <key_read+0x160>
30001d64:	e51b0008 	ldr	r0, [fp, #-8]
30001d68:	e59f20bc 	ldr	r2, [pc, #188]	; 30001e2c <key_read+0x194>
30001d6c:	e3a01004 	mov	r1, #4	; 0x4
30001d70:	e1a03200 	lsl	r3, r0, #4
30001d74:	e0823003 	add	r3, r2, r3
30001d78:	e0833001 	add	r3, r3, r1
30001d7c:	e5933000 	ldr	r3, [r3]
30001d80:	e283c001 	add	ip, r3, #1	; 0x1
30001d84:	e59f20a0 	ldr	r2, [pc, #160]	; 30001e2c <key_read+0x194>
30001d88:	e3a01004 	mov	r1, #4	; 0x4
30001d8c:	e1a03200 	lsl	r3, r0, #4
30001d90:	e0823003 	add	r3, r2, r3
30001d94:	e0833001 	add	r3, r3, r1
30001d98:	e583c000 	str	ip, [r3]
30001d9c:	e51b3010 	ldr	r3, [fp, #-16]
30001da0:	e3530000 	cmp	r3, #0	; 0x0
30001da4:	0a000013 	beq	30001df8 <key_read+0x160>
30001da8:	e51b3008 	ldr	r3, [fp, #-8]
30001dac:	e59f2078 	ldr	r2, [pc, #120]	; 30001e2c <key_read+0x194>
30001db0:	e3a01004 	mov	r1, #4	; 0x4
30001db4:	e1a03203 	lsl	r3, r3, #4
30001db8:	e0823003 	add	r3, r2, r3
30001dbc:	e0833001 	add	r3, r3, r1
30001dc0:	e5933000 	ldr	r3, [r3]
30001dc4:	e3530009 	cmp	r3, #9	; 0x9
30001dc8:	da00000a 	ble	30001df8 <key_read+0x160>
30001dcc:	e51b3008 	ldr	r3, [fp, #-8]
30001dd0:	e59f2054 	ldr	r2, [pc, #84]	; 30001e2c <key_read+0x194>
30001dd4:	e3a01004 	mov	r1, #4	; 0x4
30001dd8:	e1a03203 	lsl	r3, r3, #4
30001ddc:	e0823003 	add	r3, r2, r3
30001de0:	e0832001 	add	r2, r3, r1
30001de4:	e3a03000 	mov	r3, #0	; 0x0
30001de8:	e5823000 	str	r3, [r2]
30001dec:	e51b3008 	ldr	r3, [fp, #-8]
30001df0:	e50b3014 	str	r3, [fp, #-20]
30001df4:	ea000006 	b	30001e14 <key_read+0x17c>
30001df8:	e51b3008 	ldr	r3, [fp, #-8]
30001dfc:	e2833001 	add	r3, r3, #1	; 0x1
30001e00:	e50b3008 	str	r3, [fp, #-8]
30001e04:	e51b3008 	ldr	r3, [fp, #-8]
30001e08:	e3530002 	cmp	r3, #2	; 0x2
30001e0c:	daffffcf 	ble	30001d50 <key_read+0xb8>
30001e10:	ea000001 	b	30001e1c <key_read+0x184>
30001e14:	e51b3014 	ldr	r3, [fp, #-20]
30001e18:	e50b3018 	str	r3, [fp, #-24]
30001e1c:	e51b0018 	ldr	r0, [fp, #-24]
30001e20:	e24bd004 	sub	sp, fp, #4	; 0x4
30001e24:	e8bd4800 	pop	{fp, lr}
30001e28:	e12fff1e 	bx	lr
30001e2c:	30006954 	.word	0x30006954

30001e30 <draw_circle>:
30001e30:	e92d4800 	push	{fp, lr}
30001e34:	e28db004 	add	fp, sp, #4	; 0x4
30001e38:	e24dd020 	sub	sp, sp, #32	; 0x20
30001e3c:	e50b0018 	str	r0, [fp, #-24]
30001e40:	e50b101c 	str	r1, [fp, #-28]
30001e44:	e50b2020 	str	r2, [fp, #-32]
30001e48:	e50b3024 	str	r3, [fp, #-36]
30001e4c:	e3a03000 	mov	r3, #0	; 0x0
30001e50:	e50b3010 	str	r3, [fp, #-16]
30001e54:	e51b3020 	ldr	r3, [fp, #-32]
30001e58:	e50b300c 	str	r3, [fp, #-12]
30001e5c:	ea000067 	b	30002000 <draw_circle+0x1d0>
30001e60:	e51b2018 	ldr	r2, [fp, #-24]
30001e64:	e51b3010 	ldr	r3, [fp, #-16]
30001e68:	e0821003 	add	r1, r2, r3
30001e6c:	e51b201c 	ldr	r2, [fp, #-28]
30001e70:	e51b300c 	ldr	r3, [fp, #-12]
30001e74:	e0633002 	rsb	r3, r3, r2
30001e78:	e51b2024 	ldr	r2, [fp, #-36]
30001e7c:	e1a00001 	mov	r0, r1
30001e80:	e1a01003 	mov	r1, r3
30001e84:	eb0001ff 	bl	30002688 <fb_put_pixel>
30001e88:	e51b2018 	ldr	r2, [fp, #-24]
30001e8c:	e51b3010 	ldr	r3, [fp, #-16]
30001e90:	e0631002 	rsb	r1, r3, r2
30001e94:	e51b201c 	ldr	r2, [fp, #-28]
30001e98:	e51b300c 	ldr	r3, [fp, #-12]
30001e9c:	e0633002 	rsb	r3, r3, r2
30001ea0:	e51b2024 	ldr	r2, [fp, #-36]
30001ea4:	e1a00001 	mov	r0, r1
30001ea8:	e1a01003 	mov	r1, r3
30001eac:	eb0001f5 	bl	30002688 <fb_put_pixel>
30001eb0:	e51b2018 	ldr	r2, [fp, #-24]
30001eb4:	e51b3010 	ldr	r3, [fp, #-16]
30001eb8:	e0631002 	rsb	r1, r3, r2
30001ebc:	e51b201c 	ldr	r2, [fp, #-28]
30001ec0:	e51b300c 	ldr	r3, [fp, #-12]
30001ec4:	e0823003 	add	r3, r2, r3
30001ec8:	e51b2024 	ldr	r2, [fp, #-36]
30001ecc:	e1a00001 	mov	r0, r1
30001ed0:	e1a01003 	mov	r1, r3
30001ed4:	eb0001eb 	bl	30002688 <fb_put_pixel>
30001ed8:	e51b2018 	ldr	r2, [fp, #-24]
30001edc:	e51b3010 	ldr	r3, [fp, #-16]
30001ee0:	e0821003 	add	r1, r2, r3
30001ee4:	e51b201c 	ldr	r2, [fp, #-28]
30001ee8:	e51b300c 	ldr	r3, [fp, #-12]
30001eec:	e0823003 	add	r3, r2, r3
30001ef0:	e51b2024 	ldr	r2, [fp, #-36]
30001ef4:	e1a00001 	mov	r0, r1
30001ef8:	e1a01003 	mov	r1, r3
30001efc:	eb0001e1 	bl	30002688 <fb_put_pixel>
30001f00:	e51b2018 	ldr	r2, [fp, #-24]
30001f04:	e51b300c 	ldr	r3, [fp, #-12]
30001f08:	e0821003 	add	r1, r2, r3
30001f0c:	e51b201c 	ldr	r2, [fp, #-28]
30001f10:	e51b3010 	ldr	r3, [fp, #-16]
30001f14:	e0823003 	add	r3, r2, r3
30001f18:	e51b2024 	ldr	r2, [fp, #-36]
30001f1c:	e1a00001 	mov	r0, r1
30001f20:	e1a01003 	mov	r1, r3
30001f24:	eb0001d7 	bl	30002688 <fb_put_pixel>
30001f28:	e51b2018 	ldr	r2, [fp, #-24]
30001f2c:	e51b300c 	ldr	r3, [fp, #-12]
30001f30:	e0821003 	add	r1, r2, r3
30001f34:	e51b201c 	ldr	r2, [fp, #-28]
30001f38:	e51b3010 	ldr	r3, [fp, #-16]
30001f3c:	e0633002 	rsb	r3, r3, r2
30001f40:	e51b2024 	ldr	r2, [fp, #-36]
30001f44:	e1a00001 	mov	r0, r1
30001f48:	e1a01003 	mov	r1, r3
30001f4c:	eb0001cd 	bl	30002688 <fb_put_pixel>
30001f50:	e51b2018 	ldr	r2, [fp, #-24]
30001f54:	e51b300c 	ldr	r3, [fp, #-12]
30001f58:	e0631002 	rsb	r1, r3, r2
30001f5c:	e51b201c 	ldr	r2, [fp, #-28]
30001f60:	e51b3010 	ldr	r3, [fp, #-16]
30001f64:	e0633002 	rsb	r3, r3, r2
30001f68:	e51b2024 	ldr	r2, [fp, #-36]
30001f6c:	e1a00001 	mov	r0, r1
30001f70:	e1a01003 	mov	r1, r3
30001f74:	eb0001c3 	bl	30002688 <fb_put_pixel>
30001f78:	e51b2018 	ldr	r2, [fp, #-24]
30001f7c:	e51b300c 	ldr	r3, [fp, #-12]
30001f80:	e0631002 	rsb	r1, r3, r2
30001f84:	e51b201c 	ldr	r2, [fp, #-28]
30001f88:	e51b3010 	ldr	r3, [fp, #-16]
30001f8c:	e0823003 	add	r3, r2, r3
30001f90:	e51b2024 	ldr	r2, [fp, #-36]
30001f94:	e1a00001 	mov	r0, r1
30001f98:	e1a01003 	mov	r1, r3
30001f9c:	eb0001b9 	bl	30002688 <fb_put_pixel>
30001fa0:	e51b3010 	ldr	r3, [fp, #-16]
30001fa4:	e2833001 	add	r3, r3, #1	; 0x1
30001fa8:	e50b3010 	str	r3, [fp, #-16]
30001fac:	e51b2010 	ldr	r2, [fp, #-16]
30001fb0:	e51b3010 	ldr	r3, [fp, #-16]
30001fb4:	e0010293 	mul	r1, r3, r2
30001fb8:	e51b200c 	ldr	r2, [fp, #-12]
30001fbc:	e51b300c 	ldr	r3, [fp, #-12]
30001fc0:	e0030392 	mul	r3, r2, r3
30001fc4:	e0811003 	add	r1, r1, r3
30001fc8:	e51b2020 	ldr	r2, [fp, #-32]
30001fcc:	e51b3020 	ldr	r3, [fp, #-32]
30001fd0:	e0030392 	mul	r3, r2, r3
30001fd4:	e0633001 	rsb	r3, r3, r1
30001fd8:	e50b3008 	str	r3, [fp, #-8]
30001fdc:	e51b3008 	ldr	r3, [fp, #-8]
30001fe0:	e3530000 	cmp	r3, #0	; 0x0
30001fe4:	da000005 	ble	30002000 <draw_circle+0x1d0>
30001fe8:	e51b300c 	ldr	r3, [fp, #-12]
30001fec:	e2433001 	sub	r3, r3, #1	; 0x1
30001ff0:	e50b300c 	str	r3, [fp, #-12]
30001ff4:	e51b3010 	ldr	r3, [fp, #-16]
30001ff8:	e2433001 	sub	r3, r3, #1	; 0x1
30001ffc:	e50b3010 	str	r3, [fp, #-16]
30002000:	e51b200c 	ldr	r2, [fp, #-12]
30002004:	e51b300c 	ldr	r3, [fp, #-12]
30002008:	e0010293 	mul	r1, r3, r2
3000200c:	e1a03001 	mov	r3, r1
30002010:	e1a02103 	lsl	r2, r3, #2
30002014:	e1a03102 	lsl	r3, r2, #2
30002018:	e0623003 	rsb	r3, r2, r3
3000201c:	e0613003 	rsb	r3, r1, r3
30002020:	e1a03083 	lsl	r3, r3, #1
30002024:	e1a01003 	mov	r1, r3
30002028:	e51b2020 	ldr	r2, [fp, #-32]
3000202c:	e51b3020 	ldr	r3, [fp, #-32]
30002030:	e0030392 	mul	r3, r2, r3
30002034:	e1510003 	cmp	r1, r3
30002038:	aaffff88 	bge	30001e60 <draw_circle+0x30>
3000203c:	e24bd004 	sub	sp, fp, #4	; 0x4
30002040:	e8bd4800 	pop	{fp, lr}
30002044:	e12fff1e 	bx	lr

30002048 <draw_line>:
30002048:	e92d4800 	push	{fp, lr}
3000204c:	e28db004 	add	fp, sp, #4	; 0x4
30002050:	e24dd020 	sub	sp, sp, #32	; 0x20
30002054:	e50b0018 	str	r0, [fp, #-24]
30002058:	e50b101c 	str	r1, [fp, #-28]
3000205c:	e50b2020 	str	r2, [fp, #-32]
30002060:	e50b3024 	str	r3, [fp, #-36]
30002064:	e51b2020 	ldr	r2, [fp, #-32]
30002068:	e51b3018 	ldr	r3, [fp, #-24]
3000206c:	e0633002 	rsb	r3, r3, r2
30002070:	e50b3010 	str	r3, [fp, #-16]
30002074:	e51b2024 	ldr	r2, [fp, #-36]
30002078:	e51b301c 	ldr	r3, [fp, #-28]
3000207c:	e0633002 	rsb	r3, r3, r2
30002080:	e50b300c 	str	r3, [fp, #-12]
30002084:	e51b3010 	ldr	r3, [fp, #-16]
30002088:	e3530000 	cmp	r3, #0	; 0x0
3000208c:	ba00009d 	blt	30002308 <draw_line+0x2c0>
30002090:	e51b300c 	ldr	r3, [fp, #-12]
30002094:	e3530000 	cmp	r3, #0	; 0x0
30002098:	ba00004b 	blt	300021cc <draw_line+0x184>
3000209c:	e51b2010 	ldr	r2, [fp, #-16]
300020a0:	e51b300c 	ldr	r3, [fp, #-12]
300020a4:	e1520003 	cmp	r2, r3
300020a8:	ba000023 	blt	3000213c <draw_line+0xf4>
300020ac:	e51b2010 	ldr	r2, [fp, #-16]
300020b0:	e1a03fa2 	lsr	r3, r2, #31
300020b4:	e0833002 	add	r3, r3, r2
300020b8:	e1a030c3 	asr	r3, r3, #1
300020bc:	e1a02003 	mov	r2, r3
300020c0:	e51b300c 	ldr	r3, [fp, #-12]
300020c4:	e0623003 	rsb	r3, r2, r3
300020c8:	e50b3008 	str	r3, [fp, #-8]
300020cc:	ea000015 	b	30002128 <draw_line+0xe0>
300020d0:	e59b3004 	ldr	r3, [fp, #4]
300020d4:	e51b0018 	ldr	r0, [fp, #-24]
300020d8:	e51b101c 	ldr	r1, [fp, #-28]
300020dc:	e1a02003 	mov	r2, r3
300020e0:	eb000168 	bl	30002688 <fb_put_pixel>
300020e4:	e51b3008 	ldr	r3, [fp, #-8]
300020e8:	e3530000 	cmp	r3, #0	; 0x0
300020ec:	da000006 	ble	3000210c <draw_line+0xc4>
300020f0:	e51b301c 	ldr	r3, [fp, #-28]
300020f4:	e2833001 	add	r3, r3, #1	; 0x1
300020f8:	e50b301c 	str	r3, [fp, #-28]
300020fc:	e51b2008 	ldr	r2, [fp, #-8]
30002100:	e51b3010 	ldr	r3, [fp, #-16]
30002104:	e0633002 	rsb	r3, r3, r2
30002108:	e50b3008 	str	r3, [fp, #-8]
3000210c:	e51b3018 	ldr	r3, [fp, #-24]
30002110:	e2833001 	add	r3, r3, #1	; 0x1
30002114:	e50b3018 	str	r3, [fp, #-24]
30002118:	e51b2008 	ldr	r2, [fp, #-8]
3000211c:	e51b300c 	ldr	r3, [fp, #-12]
30002120:	e0823003 	add	r3, r2, r3
30002124:	e50b3008 	str	r3, [fp, #-8]
30002128:	e51b2018 	ldr	r2, [fp, #-24]
3000212c:	e51b3020 	ldr	r3, [fp, #-32]
30002130:	e1520003 	cmp	r2, r3
30002134:	daffffe5 	ble	300020d0 <draw_line+0x88>
30002138:	ea000112 	b	30002588 <draw_line+0x540>
3000213c:	e51b200c 	ldr	r2, [fp, #-12]
30002140:	e1a03fa2 	lsr	r3, r2, #31
30002144:	e0833002 	add	r3, r3, r2
30002148:	e1a030c3 	asr	r3, r3, #1
3000214c:	e1a02003 	mov	r2, r3
30002150:	e51b3010 	ldr	r3, [fp, #-16]
30002154:	e0623003 	rsb	r3, r2, r3
30002158:	e50b3008 	str	r3, [fp, #-8]
3000215c:	ea000015 	b	300021b8 <draw_line+0x170>
30002160:	e59b3004 	ldr	r3, [fp, #4]
30002164:	e51b0018 	ldr	r0, [fp, #-24]
30002168:	e51b101c 	ldr	r1, [fp, #-28]
3000216c:	e1a02003 	mov	r2, r3
30002170:	eb000144 	bl	30002688 <fb_put_pixel>
30002174:	e51b3008 	ldr	r3, [fp, #-8]
30002178:	e3530000 	cmp	r3, #0	; 0x0
3000217c:	da000006 	ble	3000219c <draw_line+0x154>
30002180:	e51b3018 	ldr	r3, [fp, #-24]
30002184:	e2833001 	add	r3, r3, #1	; 0x1
30002188:	e50b3018 	str	r3, [fp, #-24]
3000218c:	e51b2008 	ldr	r2, [fp, #-8]
30002190:	e51b300c 	ldr	r3, [fp, #-12]
30002194:	e0633002 	rsb	r3, r3, r2
30002198:	e50b3008 	str	r3, [fp, #-8]
3000219c:	e51b301c 	ldr	r3, [fp, #-28]
300021a0:	e2833001 	add	r3, r3, #1	; 0x1
300021a4:	e50b301c 	str	r3, [fp, #-28]
300021a8:	e51b2008 	ldr	r2, [fp, #-8]
300021ac:	e51b3010 	ldr	r3, [fp, #-16]
300021b0:	e0823003 	add	r3, r2, r3
300021b4:	e50b3008 	str	r3, [fp, #-8]
300021b8:	e51b201c 	ldr	r2, [fp, #-28]
300021bc:	e51b3024 	ldr	r3, [fp, #-36]
300021c0:	e1520003 	cmp	r2, r3
300021c4:	daffffe5 	ble	30002160 <draw_line+0x118>
300021c8:	ea0000ee 	b	30002588 <draw_line+0x540>
300021cc:	e51b300c 	ldr	r3, [fp, #-12]
300021d0:	e2633000 	rsb	r3, r3, #0	; 0x0
300021d4:	e50b300c 	str	r3, [fp, #-12]
300021d8:	e51b2010 	ldr	r2, [fp, #-16]
300021dc:	e51b300c 	ldr	r3, [fp, #-12]
300021e0:	e1520003 	cmp	r2, r3
300021e4:	ba000023 	blt	30002278 <draw_line+0x230>
300021e8:	e51b2010 	ldr	r2, [fp, #-16]
300021ec:	e1a03fa2 	lsr	r3, r2, #31
300021f0:	e0833002 	add	r3, r3, r2
300021f4:	e1a030c3 	asr	r3, r3, #1
300021f8:	e1a02003 	mov	r2, r3
300021fc:	e51b300c 	ldr	r3, [fp, #-12]
30002200:	e0623003 	rsb	r3, r2, r3
30002204:	e50b3008 	str	r3, [fp, #-8]
30002208:	ea000015 	b	30002264 <draw_line+0x21c>
3000220c:	e59b3004 	ldr	r3, [fp, #4]
30002210:	e51b0018 	ldr	r0, [fp, #-24]
30002214:	e51b101c 	ldr	r1, [fp, #-28]
30002218:	e1a02003 	mov	r2, r3
3000221c:	eb000119 	bl	30002688 <fb_put_pixel>
30002220:	e51b3008 	ldr	r3, [fp, #-8]
30002224:	e3530000 	cmp	r3, #0	; 0x0
30002228:	da000006 	ble	30002248 <draw_line+0x200>
3000222c:	e51b301c 	ldr	r3, [fp, #-28]
30002230:	e2433001 	sub	r3, r3, #1	; 0x1
30002234:	e50b301c 	str	r3, [fp, #-28]
30002238:	e51b2008 	ldr	r2, [fp, #-8]
3000223c:	e51b3010 	ldr	r3, [fp, #-16]
30002240:	e0633002 	rsb	r3, r3, r2
30002244:	e50b3008 	str	r3, [fp, #-8]
30002248:	e51b3018 	ldr	r3, [fp, #-24]
3000224c:	e2833001 	add	r3, r3, #1	; 0x1
30002250:	e50b3018 	str	r3, [fp, #-24]
30002254:	e51b2008 	ldr	r2, [fp, #-8]
30002258:	e51b300c 	ldr	r3, [fp, #-12]
3000225c:	e0823003 	add	r3, r2, r3
30002260:	e50b3008 	str	r3, [fp, #-8]
30002264:	e51b2018 	ldr	r2, [fp, #-24]
30002268:	e51b3020 	ldr	r3, [fp, #-32]
3000226c:	e1520003 	cmp	r2, r3
30002270:	daffffe5 	ble	3000220c <draw_line+0x1c4>
30002274:	ea0000c3 	b	30002588 <draw_line+0x540>
30002278:	e51b200c 	ldr	r2, [fp, #-12]
3000227c:	e1a03fa2 	lsr	r3, r2, #31
30002280:	e0833002 	add	r3, r3, r2
30002284:	e1a030c3 	asr	r3, r3, #1
30002288:	e1a02003 	mov	r2, r3
3000228c:	e51b3010 	ldr	r3, [fp, #-16]
30002290:	e0623003 	rsb	r3, r2, r3
30002294:	e50b3008 	str	r3, [fp, #-8]
30002298:	ea000015 	b	300022f4 <draw_line+0x2ac>
3000229c:	e59b3004 	ldr	r3, [fp, #4]
300022a0:	e51b0018 	ldr	r0, [fp, #-24]
300022a4:	e51b101c 	ldr	r1, [fp, #-28]
300022a8:	e1a02003 	mov	r2, r3
300022ac:	eb0000f5 	bl	30002688 <fb_put_pixel>
300022b0:	e51b3008 	ldr	r3, [fp, #-8]
300022b4:	e3530000 	cmp	r3, #0	; 0x0
300022b8:	da000006 	ble	300022d8 <draw_line+0x290>
300022bc:	e51b3018 	ldr	r3, [fp, #-24]
300022c0:	e2833001 	add	r3, r3, #1	; 0x1
300022c4:	e50b3018 	str	r3, [fp, #-24]
300022c8:	e51b2008 	ldr	r2, [fp, #-8]
300022cc:	e51b300c 	ldr	r3, [fp, #-12]
300022d0:	e0633002 	rsb	r3, r3, r2
300022d4:	e50b3008 	str	r3, [fp, #-8]
300022d8:	e51b301c 	ldr	r3, [fp, #-28]
300022dc:	e2433001 	sub	r3, r3, #1	; 0x1
300022e0:	e50b301c 	str	r3, [fp, #-28]
300022e4:	e51b2008 	ldr	r2, [fp, #-8]
300022e8:	e51b3010 	ldr	r3, [fp, #-16]
300022ec:	e0823003 	add	r3, r2, r3
300022f0:	e50b3008 	str	r3, [fp, #-8]
300022f4:	e51b201c 	ldr	r2, [fp, #-28]
300022f8:	e51b3024 	ldr	r3, [fp, #-36]
300022fc:	e1520003 	cmp	r2, r3
30002300:	aaffffe5 	bge	3000229c <draw_line+0x254>
30002304:	ea00009f 	b	30002588 <draw_line+0x540>
30002308:	e51b3010 	ldr	r3, [fp, #-16]
3000230c:	e2633000 	rsb	r3, r3, #0	; 0x0
30002310:	e50b3010 	str	r3, [fp, #-16]
30002314:	e51b300c 	ldr	r3, [fp, #-12]
30002318:	e3530000 	cmp	r3, #0	; 0x0
3000231c:	ba00004b 	blt	30002450 <draw_line+0x408>
30002320:	e51b2010 	ldr	r2, [fp, #-16]
30002324:	e51b300c 	ldr	r3, [fp, #-12]
30002328:	e1520003 	cmp	r2, r3
3000232c:	ba000023 	blt	300023c0 <draw_line+0x378>
30002330:	e51b2010 	ldr	r2, [fp, #-16]
30002334:	e1a03fa2 	lsr	r3, r2, #31
30002338:	e0833002 	add	r3, r3, r2
3000233c:	e1a030c3 	asr	r3, r3, #1
30002340:	e1a02003 	mov	r2, r3
30002344:	e51b300c 	ldr	r3, [fp, #-12]
30002348:	e0623003 	rsb	r3, r2, r3
3000234c:	e50b3008 	str	r3, [fp, #-8]
30002350:	ea000015 	b	300023ac <draw_line+0x364>
30002354:	e59b3004 	ldr	r3, [fp, #4]
30002358:	e51b0018 	ldr	r0, [fp, #-24]
3000235c:	e51b101c 	ldr	r1, [fp, #-28]
30002360:	e1a02003 	mov	r2, r3
30002364:	eb0000c7 	bl	30002688 <fb_put_pixel>
30002368:	e51b3008 	ldr	r3, [fp, #-8]
3000236c:	e3530000 	cmp	r3, #0	; 0x0
30002370:	da000006 	ble	30002390 <draw_line+0x348>
30002374:	e51b301c 	ldr	r3, [fp, #-28]
30002378:	e2833001 	add	r3, r3, #1	; 0x1
3000237c:	e50b301c 	str	r3, [fp, #-28]
30002380:	e51b2008 	ldr	r2, [fp, #-8]
30002384:	e51b3010 	ldr	r3, [fp, #-16]
30002388:	e0633002 	rsb	r3, r3, r2
3000238c:	e50b3008 	str	r3, [fp, #-8]
30002390:	e51b3018 	ldr	r3, [fp, #-24]
30002394:	e2433001 	sub	r3, r3, #1	; 0x1
30002398:	e50b3018 	str	r3, [fp, #-24]
3000239c:	e51b2008 	ldr	r2, [fp, #-8]
300023a0:	e51b300c 	ldr	r3, [fp, #-12]
300023a4:	e0823003 	add	r3, r2, r3
300023a8:	e50b3008 	str	r3, [fp, #-8]
300023ac:	e51b2018 	ldr	r2, [fp, #-24]
300023b0:	e51b3020 	ldr	r3, [fp, #-32]
300023b4:	e1520003 	cmp	r2, r3
300023b8:	aaffffe5 	bge	30002354 <draw_line+0x30c>
300023bc:	ea000071 	b	30002588 <draw_line+0x540>
300023c0:	e51b200c 	ldr	r2, [fp, #-12]
300023c4:	e1a03fa2 	lsr	r3, r2, #31
300023c8:	e0833002 	add	r3, r3, r2
300023cc:	e1a030c3 	asr	r3, r3, #1
300023d0:	e1a02003 	mov	r2, r3
300023d4:	e51b3010 	ldr	r3, [fp, #-16]
300023d8:	e0623003 	rsb	r3, r2, r3
300023dc:	e50b3008 	str	r3, [fp, #-8]
300023e0:	ea000015 	b	3000243c <draw_line+0x3f4>
300023e4:	e59b3004 	ldr	r3, [fp, #4]
300023e8:	e51b0018 	ldr	r0, [fp, #-24]
300023ec:	e51b101c 	ldr	r1, [fp, #-28]
300023f0:	e1a02003 	mov	r2, r3
300023f4:	eb0000a3 	bl	30002688 <fb_put_pixel>
300023f8:	e51b3008 	ldr	r3, [fp, #-8]
300023fc:	e3530000 	cmp	r3, #0	; 0x0
30002400:	da000006 	ble	30002420 <draw_line+0x3d8>
30002404:	e51b3018 	ldr	r3, [fp, #-24]
30002408:	e2433001 	sub	r3, r3, #1	; 0x1
3000240c:	e50b3018 	str	r3, [fp, #-24]
30002410:	e51b2008 	ldr	r2, [fp, #-8]
30002414:	e51b300c 	ldr	r3, [fp, #-12]
30002418:	e0633002 	rsb	r3, r3, r2
3000241c:	e50b3008 	str	r3, [fp, #-8]
30002420:	e51b301c 	ldr	r3, [fp, #-28]
30002424:	e2833001 	add	r3, r3, #1	; 0x1
30002428:	e50b301c 	str	r3, [fp, #-28]
3000242c:	e51b2008 	ldr	r2, [fp, #-8]
30002430:	e51b3010 	ldr	r3, [fp, #-16]
30002434:	e0823003 	add	r3, r2, r3
30002438:	e50b3008 	str	r3, [fp, #-8]
3000243c:	e51b201c 	ldr	r2, [fp, #-28]
30002440:	e51b3024 	ldr	r3, [fp, #-36]
30002444:	e1520003 	cmp	r2, r3
30002448:	daffffe5 	ble	300023e4 <draw_line+0x39c>
3000244c:	ea00004d 	b	30002588 <draw_line+0x540>
30002450:	e51b300c 	ldr	r3, [fp, #-12]
30002454:	e2633000 	rsb	r3, r3, #0	; 0x0
30002458:	e50b300c 	str	r3, [fp, #-12]
3000245c:	e51b2010 	ldr	r2, [fp, #-16]
30002460:	e51b300c 	ldr	r3, [fp, #-12]
30002464:	e1520003 	cmp	r2, r3
30002468:	ba000023 	blt	300024fc <draw_line+0x4b4>
3000246c:	e51b2010 	ldr	r2, [fp, #-16]
30002470:	e1a03fa2 	lsr	r3, r2, #31
30002474:	e0833002 	add	r3, r3, r2
30002478:	e1a030c3 	asr	r3, r3, #1
3000247c:	e1a02003 	mov	r2, r3
30002480:	e51b300c 	ldr	r3, [fp, #-12]
30002484:	e0623003 	rsb	r3, r2, r3
30002488:	e50b3008 	str	r3, [fp, #-8]
3000248c:	ea000015 	b	300024e8 <draw_line+0x4a0>
30002490:	e59b3004 	ldr	r3, [fp, #4]
30002494:	e51b0018 	ldr	r0, [fp, #-24]
30002498:	e51b101c 	ldr	r1, [fp, #-28]
3000249c:	e1a02003 	mov	r2, r3
300024a0:	eb000078 	bl	30002688 <fb_put_pixel>
300024a4:	e51b3008 	ldr	r3, [fp, #-8]
300024a8:	e3530000 	cmp	r3, #0	; 0x0
300024ac:	da000006 	ble	300024cc <draw_line+0x484>
300024b0:	e51b301c 	ldr	r3, [fp, #-28]
300024b4:	e2433001 	sub	r3, r3, #1	; 0x1
300024b8:	e50b301c 	str	r3, [fp, #-28]
300024bc:	e51b2008 	ldr	r2, [fp, #-8]
300024c0:	e51b3010 	ldr	r3, [fp, #-16]
300024c4:	e0633002 	rsb	r3, r3, r2
300024c8:	e50b3008 	str	r3, [fp, #-8]
300024cc:	e51b3018 	ldr	r3, [fp, #-24]
300024d0:	e2433001 	sub	r3, r3, #1	; 0x1
300024d4:	e50b3018 	str	r3, [fp, #-24]
300024d8:	e51b2008 	ldr	r2, [fp, #-8]
300024dc:	e51b300c 	ldr	r3, [fp, #-12]
300024e0:	e0823003 	add	r3, r2, r3
300024e4:	e50b3008 	str	r3, [fp, #-8]
300024e8:	e51b2018 	ldr	r2, [fp, #-24]
300024ec:	e51b3020 	ldr	r3, [fp, #-32]
300024f0:	e1520003 	cmp	r2, r3
300024f4:	aaffffe5 	bge	30002490 <draw_line+0x448>
300024f8:	ea000022 	b	30002588 <draw_line+0x540>
300024fc:	e51b200c 	ldr	r2, [fp, #-12]
30002500:	e1a03fa2 	lsr	r3, r2, #31
30002504:	e0833002 	add	r3, r3, r2
30002508:	e1a030c3 	asr	r3, r3, #1
3000250c:	e1a02003 	mov	r2, r3
30002510:	e51b3010 	ldr	r3, [fp, #-16]
30002514:	e0623003 	rsb	r3, r2, r3
30002518:	e50b3008 	str	r3, [fp, #-8]
3000251c:	ea000015 	b	30002578 <draw_line+0x530>
30002520:	e59b3004 	ldr	r3, [fp, #4]
30002524:	e51b0018 	ldr	r0, [fp, #-24]
30002528:	e51b101c 	ldr	r1, [fp, #-28]
3000252c:	e1a02003 	mov	r2, r3
30002530:	eb000054 	bl	30002688 <fb_put_pixel>
30002534:	e51b3008 	ldr	r3, [fp, #-8]
30002538:	e3530000 	cmp	r3, #0	; 0x0
3000253c:	da000006 	ble	3000255c <draw_line+0x514>
30002540:	e51b3018 	ldr	r3, [fp, #-24]
30002544:	e2433001 	sub	r3, r3, #1	; 0x1
30002548:	e50b3018 	str	r3, [fp, #-24]
3000254c:	e51b2008 	ldr	r2, [fp, #-8]
30002550:	e51b300c 	ldr	r3, [fp, #-12]
30002554:	e0633002 	rsb	r3, r3, r2
30002558:	e50b3008 	str	r3, [fp, #-8]
3000255c:	e51b301c 	ldr	r3, [fp, #-28]
30002560:	e2433001 	sub	r3, r3, #1	; 0x1
30002564:	e50b301c 	str	r3, [fp, #-28]
30002568:	e51b2008 	ldr	r2, [fp, #-8]
3000256c:	e51b3010 	ldr	r3, [fp, #-16]
30002570:	e0823003 	add	r3, r2, r3
30002574:	e50b3008 	str	r3, [fp, #-8]
30002578:	e51b201c 	ldr	r2, [fp, #-28]
3000257c:	e51b3024 	ldr	r3, [fp, #-36]
30002580:	e1520003 	cmp	r2, r3
30002584:	aaffffe5 	bge	30002520 <draw_line+0x4d8>
30002588:	e24bd004 	sub	sp, fp, #4	; 0x4
3000258c:	e8bd4800 	pop	{fp, lr}
30002590:	e12fff1e 	bx	lr

30002594 <fb_get_lcd_params>:
30002594:	e92d4800 	push	{fp, lr}
30002598:	e28db004 	add	fp, sp, #4	; 0x4
3000259c:	e59f0018 	ldr	r0, [pc, #24]	; 300025bc <fb_get_lcd_params+0x28>
300025a0:	e59f1018 	ldr	r1, [pc, #24]	; 300025c0 <fb_get_lcd_params+0x2c>
300025a4:	e59f2018 	ldr	r2, [pc, #24]	; 300025c4 <fb_get_lcd_params+0x30>
300025a8:	e59f3018 	ldr	r3, [pc, #24]	; 300025c8 <fb_get_lcd_params+0x34>
300025ac:	eb000447 	bl	300036d0 <get_lcd_params>
300025b0:	e24bd004 	sub	sp, fp, #4	; 0x4
300025b4:	e8bd4800 	pop	{fp, lr}
300025b8:	e12fff1e 	bx	lr
300025bc:	300068cc 	.word	0x300068cc
300025c0:	300068d0 	.word	0x300068d0
300025c4:	300068d4 	.word	0x300068d4
300025c8:	300068d8 	.word	0x300068d8

300025cc <convert32bppto16bpp>:
300025cc:	e52db004 	push	{fp}		; (str fp, [sp, #-4]!)
300025d0:	e28db000 	add	fp, sp, #0	; 0x0
300025d4:	e24dd01c 	sub	sp, sp, #28	; 0x1c
300025d8:	e50b0018 	str	r0, [fp, #-24]
300025dc:	e51b3018 	ldr	r3, [fp, #-24]
300025e0:	e1a03823 	lsr	r3, r3, #16
300025e4:	e20330ff 	and	r3, r3, #255	; 0xff
300025e8:	e50b3010 	str	r3, [fp, #-16]
300025ec:	e51b3018 	ldr	r3, [fp, #-24]
300025f0:	e1a03423 	lsr	r3, r3, #8
300025f4:	e20330ff 	and	r3, r3, #255	; 0xff
300025f8:	e50b300c 	str	r3, [fp, #-12]
300025fc:	e51b3018 	ldr	r3, [fp, #-24]
30002600:	e20330ff 	and	r3, r3, #255	; 0xff
30002604:	e50b3008 	str	r3, [fp, #-8]
30002608:	e51b3010 	ldr	r3, [fp, #-16]
3000260c:	e1a031c3 	asr	r3, r3, #3
30002610:	e50b3010 	str	r3, [fp, #-16]
30002614:	e51b300c 	ldr	r3, [fp, #-12]
30002618:	e1a03143 	asr	r3, r3, #2
3000261c:	e50b300c 	str	r3, [fp, #-12]
30002620:	e51b3008 	ldr	r3, [fp, #-8]
30002624:	e1a031c3 	asr	r3, r3, #3
30002628:	e50b3008 	str	r3, [fp, #-8]
3000262c:	e51b3010 	ldr	r3, [fp, #-16]
30002630:	e1a03583 	lsl	r3, r3, #11
30002634:	e1a03803 	lsl	r3, r3, #16
30002638:	e1a02823 	lsr	r2, r3, #16
3000263c:	e51b300c 	ldr	r3, [fp, #-12]
30002640:	e1a03283 	lsl	r3, r3, #5
30002644:	e1a03803 	lsl	r3, r3, #16
30002648:	e1a03823 	lsr	r3, r3, #16
3000264c:	e1823003 	orr	r3, r2, r3
30002650:	e1a03803 	lsl	r3, r3, #16
30002654:	e1a02823 	lsr	r2, r3, #16
30002658:	e51b3008 	ldr	r3, [fp, #-8]
3000265c:	e1a03803 	lsl	r3, r3, #16
30002660:	e1a03823 	lsr	r3, r3, #16
30002664:	e1823003 	orr	r3, r2, r3
30002668:	e1a03803 	lsl	r3, r3, #16
3000266c:	e1a03823 	lsr	r3, r3, #16
30002670:	e1a03803 	lsl	r3, r3, #16
30002674:	e1a03823 	lsr	r3, r3, #16
30002678:	e1a00003 	mov	r0, r3
3000267c:	e28bd000 	add	sp, fp, #0	; 0x0
30002680:	e8bd0800 	pop	{fp}
30002684:	e12fff1e 	bx	lr

30002688 <fb_put_pixel>:
30002688:	e92d4800 	push	{fp, lr}
3000268c:	e28db004 	add	fp, sp, #4	; 0x4
30002690:	e24dd020 	sub	sp, sp, #32	; 0x20
30002694:	e50b0018 	str	r0, [fp, #-24]
30002698:	e50b101c 	str	r1, [fp, #-28]
3000269c:	e50b2020 	str	r2, [fp, #-32]
300026a0:	e59f30f0 	ldr	r3, [pc, #240]	; 30002798 <fb_put_pixel+0x110>
300026a4:	e5932000 	ldr	r2, [r3]
300026a8:	e59f30ec 	ldr	r3, [pc, #236]	; 3000279c <fb_put_pixel+0x114>
300026ac:	e5933000 	ldr	r3, [r3]
300026b0:	e0030392 	mul	r3, r2, r3
300026b4:	e2832007 	add	r2, r3, #7	; 0x7
300026b8:	e3530000 	cmp	r3, #0	; 0x0
300026bc:	b1a03002 	movlt	r3, r2
300026c0:	e1a031c3 	asr	r3, r3, #3
300026c4:	e1a02003 	mov	r2, r3
300026c8:	e51b301c 	ldr	r3, [fp, #-28]
300026cc:	e0030392 	mul	r3, r2, r3
300026d0:	e1a02003 	mov	r2, r3
300026d4:	e59f30c4 	ldr	r3, [pc, #196]	; 300027a0 <fb_put_pixel+0x118>
300026d8:	e5933000 	ldr	r3, [r3]
300026dc:	e0821003 	add	r1, r2, r3
300026e0:	e59f30b4 	ldr	r3, [pc, #180]	; 3000279c <fb_put_pixel+0x114>
300026e4:	e5932000 	ldr	r2, [r3]
300026e8:	e51b3018 	ldr	r3, [fp, #-24]
300026ec:	e0030392 	mul	r3, r2, r3
300026f0:	e2832007 	add	r2, r3, #7	; 0x7
300026f4:	e3530000 	cmp	r3, #0	; 0x0
300026f8:	b1a03002 	movlt	r3, r2
300026fc:	e1a031c3 	asr	r3, r3, #3
30002700:	e0813003 	add	r3, r1, r3
30002704:	e50b3008 	str	r3, [fp, #-8]
30002708:	e59f308c 	ldr	r3, [pc, #140]	; 3000279c <fb_put_pixel+0x114>
3000270c:	e5933000 	ldr	r3, [r3]
30002710:	e50b3024 	str	r3, [fp, #-36]
30002714:	e51b3024 	ldr	r3, [fp, #-36]
30002718:	e3530010 	cmp	r3, #16	; 0x10
3000271c:	0a00000c 	beq	30002754 <fb_put_pixel+0xcc>
30002720:	e51b3024 	ldr	r3, [fp, #-36]
30002724:	e3530020 	cmp	r3, #32	; 0x20
30002728:	0a000012 	beq	30002778 <fb_put_pixel+0xf0>
3000272c:	e51b3024 	ldr	r3, [fp, #-36]
30002730:	e3530008 	cmp	r3, #8	; 0x8
30002734:	1a000014 	bne	3000278c <fb_put_pixel+0x104>
30002738:	e51b3008 	ldr	r3, [fp, #-8]
3000273c:	e50b3014 	str	r3, [fp, #-20]
30002740:	e51b3020 	ldr	r3, [fp, #-32]
30002744:	e20330ff 	and	r3, r3, #255	; 0xff
30002748:	e51b2014 	ldr	r2, [fp, #-20]
3000274c:	e5c23000 	strb	r3, [r2]
30002750:	ea00000d 	b	3000278c <fb_put_pixel+0x104>
30002754:	e51b3008 	ldr	r3, [fp, #-8]
30002758:	e50b3010 	str	r3, [fp, #-16]
3000275c:	e51b0020 	ldr	r0, [fp, #-32]
30002760:	ebffff99 	bl	300025cc <convert32bppto16bpp>
30002764:	e1a03000 	mov	r3, r0
30002768:	e1a02003 	mov	r2, r3
3000276c:	e51b3010 	ldr	r3, [fp, #-16]
30002770:	e1c320b0 	strh	r2, [r3]
30002774:	ea000004 	b	3000278c <fb_put_pixel+0x104>
30002778:	e51b3008 	ldr	r3, [fp, #-8]
3000277c:	e50b300c 	str	r3, [fp, #-12]
30002780:	e51b200c 	ldr	r2, [fp, #-12]
30002784:	e51b3020 	ldr	r3, [fp, #-32]
30002788:	e5823000 	str	r3, [r2]
3000278c:	e24bd004 	sub	sp, fp, #4	; 0x4
30002790:	e8bd4800 	pop	{fp, lr}
30002794:	e12fff1e 	bx	lr
30002798:	300068d0 	.word	0x300068d0
3000279c:	300068d8 	.word	0x300068d8
300027a0:	300068cc 	.word	0x300068cc

300027a4 <jz2440_lcd_pin_init>:
300027a4:	e52db004 	push	{fp}		; (str fp, [sp, #-4]!)
300027a8:	e28db000 	add	fp, sp, #0	; 0x0
300027ac:	e3a02456 	mov	r2, #1442840576	; 0x56000000
300027b0:	e2822010 	add	r2, r2, #16	; 0x10
300027b4:	e3a03456 	mov	r3, #1442840576	; 0x56000000
300027b8:	e2833010 	add	r3, r3, #16	; 0x10
300027bc:	e5933000 	ldr	r3, [r3]
300027c0:	e3c33003 	bic	r3, r3, #3	; 0x3
300027c4:	e5823000 	str	r3, [r2]
300027c8:	e3a02456 	mov	r2, #1442840576	; 0x56000000
300027cc:	e2822010 	add	r2, r2, #16	; 0x10
300027d0:	e3a03456 	mov	r3, #1442840576	; 0x56000000
300027d4:	e2833010 	add	r3, r3, #16	; 0x10
300027d8:	e5933000 	ldr	r3, [r3]
300027dc:	e3833001 	orr	r3, r3, #1	; 0x1
300027e0:	e5823000 	str	r3, [r2]
300027e4:	e3a02456 	mov	r2, #1442840576	; 0x56000000
300027e8:	e2822020 	add	r2, r2, #32	; 0x20
300027ec:	e3a03caa 	mov	r3, #43520	; 0xaa00
300027f0:	e28330aa 	add	r3, r3, #170	; 0xaa
300027f4:	e1833803 	orr	r3, r3, r3, lsl #16
300027f8:	e5823000 	str	r3, [r2]
300027fc:	e3a02456 	mov	r2, #1442840576	; 0x56000000
30002800:	e2822030 	add	r2, r2, #48	; 0x30
30002804:	e3a03caa 	mov	r3, #43520	; 0xaa00
30002808:	e28330aa 	add	r3, r3, #170	; 0xaa
3000280c:	e1833803 	orr	r3, r3, r3, lsl #16
30002810:	e5823000 	str	r3, [r2]
30002814:	e3a02456 	mov	r2, #1442840576	; 0x56000000
30002818:	e2822060 	add	r2, r2, #96	; 0x60
3000281c:	e3a03456 	mov	r3, #1442840576	; 0x56000000
30002820:	e2833060 	add	r3, r3, #96	; 0x60
30002824:	e5933000 	ldr	r3, [r3]
30002828:	e3833c03 	orr	r3, r3, #768	; 0x300
3000282c:	e5823000 	str	r3, [r2]
30002830:	e28bd000 	add	sp, fp, #0	; 0x0
30002834:	e8bd0800 	pop	{fp}
30002838:	e12fff1e 	bx	lr

3000283c <s3c2440_lcd_controller_init>:
3000283c:	e92d4800 	push	{fp, lr}
30002840:	e28db004 	add	fp, sp, #4	; 0x4
30002844:	e24dd028 	sub	sp, sp, #40	; 0x28
30002848:	e50b0018 	str	r0, [fp, #-24]
3000284c:	ebffffd4 	bl	300027a4 <jz2440_lcd_pin_init>
30002850:	e3a03005 	mov	r3, #5	; 0x5
30002854:	e50b300c 	str	r3, [fp, #-12]
30002858:	e51b3018 	ldr	r3, [fp, #-24]
3000285c:	e5933040 	ldr	r3, [r3, #64]
30002860:	e3530008 	cmp	r3, #8	; 0x8
30002864:	0a00000b 	beq	30002898 <s3c2440_lcd_controller_init+0x5c>
30002868:	e51b3018 	ldr	r3, [fp, #-24]
3000286c:	e5933040 	ldr	r3, [r3, #64]
30002870:	e3530010 	cmp	r3, #16	; 0x10
30002874:	1a000002 	bne	30002884 <s3c2440_lcd_controller_init+0x48>
30002878:	e3a0300c 	mov	r3, #12	; 0xc
3000287c:	e50b3024 	str	r3, [fp, #-36]
30002880:	ea000001 	b	3000288c <s3c2440_lcd_controller_init+0x50>
30002884:	e3a0300d 	mov	r3, #13	; 0xd
30002888:	e50b3024 	str	r3, [fp, #-36]
3000288c:	e51b3024 	ldr	r3, [fp, #-36]
30002890:	e50b3028 	str	r3, [fp, #-40]
30002894:	ea000001 	b	300028a0 <s3c2440_lcd_controller_init+0x64>
30002898:	e3a0300b 	mov	r3, #11	; 0xb
3000289c:	e50b3028 	str	r3, [fp, #-40]
300028a0:	e51b3028 	ldr	r3, [fp, #-40]
300028a4:	e50b3008 	str	r3, [fp, #-8]
300028a8:	e3a0144d 	mov	r1, #1291845632	; 0x4d000000
300028ac:	e51b300c 	ldr	r3, [fp, #-12]
300028b0:	e1a03403 	lsl	r3, r3, #8
300028b4:	e3832060 	orr	r2, r3, #96	; 0x60
300028b8:	e51b3008 	ldr	r3, [fp, #-8]
300028bc:	e1a03083 	lsl	r3, r3, #1
300028c0:	e1823003 	orr	r3, r2, r3
300028c4:	e5813000 	str	r3, [r1]
300028c8:	e3a0144d 	mov	r1, #1291845632	; 0x4d000000
300028cc:	e2811004 	add	r1, r1, #4	; 0x4
300028d0:	e51b3018 	ldr	r3, [fp, #-24]
300028d4:	e5933020 	ldr	r3, [r3, #32]
300028d8:	e2433001 	sub	r3, r3, #1	; 0x1
300028dc:	e1a02c03 	lsl	r2, r3, #24
300028e0:	e51b3018 	ldr	r3, [fp, #-24]
300028e4:	e593303c 	ldr	r3, [r3, #60]
300028e8:	e2433001 	sub	r3, r3, #1	; 0x1
300028ec:	e1a03703 	lsl	r3, r3, #14
300028f0:	e1822003 	orr	r2, r2, r3
300028f4:	e51b3018 	ldr	r3, [fp, #-24]
300028f8:	e5933024 	ldr	r3, [r3, #36]
300028fc:	e2433001 	sub	r3, r3, #1	; 0x1
30002900:	e1a03303 	lsl	r3, r3, #6
30002904:	e1822003 	orr	r2, r2, r3
30002908:	e51b3018 	ldr	r3, [fp, #-24]
3000290c:	e593301c 	ldr	r3, [r3, #28]
30002910:	e2433001 	sub	r3, r3, #1	; 0x1
30002914:	e1823003 	orr	r3, r2, r3
30002918:	e5813000 	str	r3, [r1]
3000291c:	e3a0244d 	mov	r2, #1291845632	; 0x4d000000
30002920:	e2822008 	add	r2, r2, #8	; 0x8
30002924:	e51b3018 	ldr	r3, [fp, #-24]
30002928:	e593302c 	ldr	r3, [r3, #44]
3000292c:	e2433001 	sub	r3, r3, #1	; 0x1
30002930:	e1a01983 	lsl	r1, r3, #19
30002934:	e51b3018 	ldr	r3, [fp, #-24]
30002938:	e5933038 	ldr	r3, [r3, #56]
3000293c:	e2433001 	sub	r3, r3, #1	; 0x1
30002940:	e1a03403 	lsl	r3, r3, #8
30002944:	e1811003 	orr	r1, r1, r3
30002948:	e51b3018 	ldr	r3, [fp, #-24]
3000294c:	e5933030 	ldr	r3, [r3, #48]
30002950:	e2433001 	sub	r3, r3, #1	; 0x1
30002954:	e1813003 	orr	r3, r1, r3
30002958:	e5823000 	str	r3, [r2]
3000295c:	e3a0244d 	mov	r2, #1291845632	; 0x4d000000
30002960:	e282200c 	add	r2, r2, #12	; 0xc
30002964:	e51b3018 	ldr	r3, [fp, #-24]
30002968:	e5933028 	ldr	r3, [r3, #40]
3000296c:	e2433001 	sub	r3, r3, #1	; 0x1
30002970:	e5823000 	str	r3, [r2]
30002974:	e51b3018 	ldr	r3, [fp, #-24]
30002978:	e5933040 	ldr	r3, [r3, #64]
3000297c:	e3530020 	cmp	r3, #32	; 0x20
30002980:	0a00000b 	beq	300029b4 <s3c2440_lcd_controller_init+0x178>
30002984:	e51b3018 	ldr	r3, [fp, #-24]
30002988:	e5933040 	ldr	r3, [r3, #64]
3000298c:	e3530010 	cmp	r3, #16	; 0x10
30002990:	1a000002 	bne	300029a0 <s3c2440_lcd_controller_init+0x164>
30002994:	e3a03001 	mov	r3, #1	; 0x1
30002998:	e50b301c 	str	r3, [fp, #-28]
3000299c:	ea000001 	b	300029a8 <s3c2440_lcd_controller_init+0x16c>
300029a0:	e3a03002 	mov	r3, #2	; 0x2
300029a4:	e50b301c 	str	r3, [fp, #-28]
300029a8:	e51b301c 	ldr	r3, [fp, #-28]
300029ac:	e50b3020 	str	r3, [fp, #-32]
300029b0:	ea000001 	b	300029bc <s3c2440_lcd_controller_init+0x180>
300029b4:	e3a03000 	mov	r3, #0	; 0x0
300029b8:	e50b3020 	str	r3, [fp, #-32]
300029bc:	e51b3020 	ldr	r3, [fp, #-32]
300029c0:	e50b3014 	str	r3, [fp, #-20]
300029c4:	e3a0144d 	mov	r1, #1291845632	; 0x4d000000
300029c8:	e2811010 	add	r1, r1, #16	; 0x10
300029cc:	e51b3018 	ldr	r3, [fp, #-24]
300029d0:	e593300c 	ldr	r3, [r3, #12]
300029d4:	e1a02503 	lsl	r2, r3, #10
300029d8:	e51b3018 	ldr	r3, [fp, #-24]
300029dc:	e5933010 	ldr	r3, [r3, #16]
300029e0:	e1a03383 	lsl	r3, r3, #7
300029e4:	e1822003 	orr	r2, r2, r3
300029e8:	e51b3018 	ldr	r3, [fp, #-24]
300029ec:	e5933014 	ldr	r3, [r3, #20]
300029f0:	e1a03483 	lsl	r3, r3, #9
300029f4:	e1822003 	orr	r2, r2, r3
300029f8:	e51b3018 	ldr	r3, [fp, #-24]
300029fc:	e5933018 	ldr	r3, [r3, #24]
30002a00:	e1a03403 	lsl	r3, r3, #8
30002a04:	e1822003 	orr	r2, r2, r3
30002a08:	e51b3018 	ldr	r3, [fp, #-24]
30002a0c:	e5933004 	ldr	r3, [r3, #4]
30002a10:	e1a03303 	lsl	r3, r3, #6
30002a14:	e1822003 	orr	r2, r2, r3
30002a18:	e51b3018 	ldr	r3, [fp, #-24]
30002a1c:	e5933008 	ldr	r3, [r3, #8]
30002a20:	e1a03283 	lsl	r3, r3, #5
30002a24:	e1823003 	orr	r3, r2, r3
30002a28:	e3832b02 	orr	r2, r3, #2048	; 0x800
30002a2c:	e51b3014 	ldr	r3, [fp, #-20]
30002a30:	e1823003 	orr	r3, r2, r3
30002a34:	e5813000 	str	r3, [r1]
30002a38:	e51b3018 	ldr	r3, [fp, #-24]
30002a3c:	e5933044 	ldr	r3, [r3, #68]
30002a40:	e3c33102 	bic	r3, r3, #-2147483648	; 0x80000000
30002a44:	e50b3010 	str	r3, [fp, #-16]
30002a48:	e3a0344d 	mov	r3, #1291845632	; 0x4d000000
30002a4c:	e2833014 	add	r3, r3, #20	; 0x14
30002a50:	e51b2010 	ldr	r2, [fp, #-16]
30002a54:	e1a020a2 	lsr	r2, r2, #1
30002a58:	e5832000 	str	r2, [r3]
30002a5c:	e51b3018 	ldr	r3, [fp, #-24]
30002a60:	e5931044 	ldr	r1, [r3, #68]
30002a64:	e51b3018 	ldr	r3, [fp, #-24]
30002a68:	e5932038 	ldr	r2, [r3, #56]
30002a6c:	e51b3018 	ldr	r3, [fp, #-24]
30002a70:	e593303c 	ldr	r3, [r3, #60]
30002a74:	e0020293 	mul	r2, r3, r2
30002a78:	e51b3018 	ldr	r3, [fp, #-24]
30002a7c:	e5933040 	ldr	r3, [r3, #64]
30002a80:	e0030392 	mul	r3, r2, r3
30002a84:	e2832007 	add	r2, r3, #7	; 0x7
30002a88:	e3530000 	cmp	r3, #0	; 0x0
30002a8c:	b1a03002 	movlt	r3, r2
30002a90:	e1a031c3 	asr	r3, r3, #3
30002a94:	e0813003 	add	r3, r1, r3
30002a98:	e50b3010 	str	r3, [fp, #-16]
30002a9c:	e51b3010 	ldr	r3, [fp, #-16]
30002aa0:	e1a030a3 	lsr	r3, r3, #1
30002aa4:	e50b3010 	str	r3, [fp, #-16]
30002aa8:	e51b3010 	ldr	r3, [fp, #-16]
30002aac:	e3c334ff 	bic	r3, r3, #-16777216	; 0xff000000
30002ab0:	e3c3360e 	bic	r3, r3, #14680064	; 0xe00000
30002ab4:	e50b3010 	str	r3, [fp, #-16]
30002ab8:	e3a0344d 	mov	r3, #1291845632	; 0x4d000000
30002abc:	e2833018 	add	r3, r3, #24	; 0x18
30002ac0:	e51b2010 	ldr	r2, [fp, #-16]
30002ac4:	e5832000 	str	r2, [r3]
30002ac8:	e24bd004 	sub	sp, fp, #4	; 0x4
30002acc:	e8bd4800 	pop	{fp, lr}
30002ad0:	e12fff1e 	bx	lr

30002ad4 <s3c2440_lcd_controller_enalbe>:
30002ad4:	e52db004 	push	{fp}		; (str fp, [sp, #-4]!)
30002ad8:	e28db000 	add	fp, sp, #0	; 0x0
30002adc:	e3a02456 	mov	r2, #1442840576	; 0x56000000
30002ae0:	e2822014 	add	r2, r2, #20	; 0x14
30002ae4:	e3a03456 	mov	r3, #1442840576	; 0x56000000
30002ae8:	e2833014 	add	r3, r3, #20	; 0x14
30002aec:	e5933000 	ldr	r3, [r3]
30002af0:	e3833001 	orr	r3, r3, #1	; 0x1
30002af4:	e5823000 	str	r3, [r2]
30002af8:	e3a0244d 	mov	r2, #1291845632	; 0x4d000000
30002afc:	e2822010 	add	r2, r2, #16	; 0x10
30002b00:	e3a0344d 	mov	r3, #1291845632	; 0x4d000000
30002b04:	e2833010 	add	r3, r3, #16	; 0x10
30002b08:	e5933000 	ldr	r3, [r3]
30002b0c:	e3833008 	orr	r3, r3, #8	; 0x8
30002b10:	e5823000 	str	r3, [r2]
30002b14:	e3a0244d 	mov	r2, #1291845632	; 0x4d000000
30002b18:	e3a0344d 	mov	r3, #1291845632	; 0x4d000000
30002b1c:	e5933000 	ldr	r3, [r3]
30002b20:	e3833001 	orr	r3, r3, #1	; 0x1
30002b24:	e5823000 	str	r3, [r2]
30002b28:	e28bd000 	add	sp, fp, #0	; 0x0
30002b2c:	e8bd0800 	pop	{fp}
30002b30:	e12fff1e 	bx	lr

30002b34 <s3c2440_lcd_controller_disable>:
30002b34:	e52db004 	push	{fp}		; (str fp, [sp, #-4]!)
30002b38:	e28db000 	add	fp, sp, #0	; 0x0
30002b3c:	e3a02456 	mov	r2, #1442840576	; 0x56000000
30002b40:	e2822014 	add	r2, r2, #20	; 0x14
30002b44:	e3a03456 	mov	r3, #1442840576	; 0x56000000
30002b48:	e2833014 	add	r3, r3, #20	; 0x14
30002b4c:	e5933000 	ldr	r3, [r3]
30002b50:	e3c33001 	bic	r3, r3, #1	; 0x1
30002b54:	e5823000 	str	r3, [r2]
30002b58:	e3a0244d 	mov	r2, #1291845632	; 0x4d000000
30002b5c:	e2822010 	add	r2, r2, #16	; 0x10
30002b60:	e3a0344d 	mov	r3, #1291845632	; 0x4d000000
30002b64:	e2833010 	add	r3, r3, #16	; 0x10
30002b68:	e5933000 	ldr	r3, [r3]
30002b6c:	e3c33008 	bic	r3, r3, #8	; 0x8
30002b70:	e5823000 	str	r3, [r2]
30002b74:	e3a0244d 	mov	r2, #1291845632	; 0x4d000000
30002b78:	e3a0344d 	mov	r3, #1291845632	; 0x4d000000
30002b7c:	e5933000 	ldr	r3, [r3]
30002b80:	e3c33001 	bic	r3, r3, #1	; 0x1
30002b84:	e5823000 	str	r3, [r2]
30002b88:	e28bd000 	add	sp, fp, #0	; 0x0
30002b8c:	e8bd0800 	pop	{fp}
30002b90:	e12fff1e 	bx	lr

30002b94 <s3c2440_lcd_contoller_add>:
30002b94:	e92d4800 	push	{fp, lr}
30002b98:	e28db004 	add	fp, sp, #4	; 0x4
30002b9c:	e59f000c 	ldr	r0, [pc, #12]	; 30002bb0 <s3c2440_lcd_contoller_add+0x1c>
30002ba0:	eb0001e9 	bl	3000334c <register_lcd_controller>
30002ba4:	e24bd004 	sub	sp, fp, #4	; 0x4
30002ba8:	e8bd4800 	pop	{fp, lr}
30002bac:	e12fff1e 	bx	lr
30002bb0:	300067f4 	.word	0x300067f4

30002bb4 <font_init>:
30002bb4:	e92d4800 	push	{fp, lr}
30002bb8:	e28db004 	add	fp, sp, #4	; 0x4
30002bbc:	e59f0018 	ldr	r0, [pc, #24]	; 30002bdc <font_init+0x28>
30002bc0:	e59f1018 	ldr	r1, [pc, #24]	; 30002be0 <font_init+0x2c>
30002bc4:	e59f2018 	ldr	r2, [pc, #24]	; 30002be4 <font_init+0x30>
30002bc8:	e59f3018 	ldr	r3, [pc, #24]	; 30002be8 <font_init+0x34>
30002bcc:	eb0002bf 	bl	300036d0 <get_lcd_params>
30002bd0:	e24bd004 	sub	sp, fp, #4	; 0x4
30002bd4:	e8bd4800 	pop	{fp, lr}
30002bd8:	e12fff1e 	bx	lr
30002bdc:	300068dc 	.word	0x300068dc
30002be0:	300068e0 	.word	0x300068e0
30002be4:	300068e4 	.word	0x300068e4
30002be8:	300068e8 	.word	0x300068e8

30002bec <fb_print_char>:
30002bec:	e92d4800 	push	{fp, lr}
30002bf0:	e28db004 	add	fp, sp, #4	; 0x4
30002bf4:	e24dd028 	sub	sp, sp, #40	; 0x28
30002bf8:	e50b0020 	str	r0, [fp, #-32]
30002bfc:	e50b1024 	str	r1, [fp, #-36]
30002c00:	e50b302c 	str	r3, [fp, #-44]
30002c04:	e1a03002 	mov	r3, r2
30002c08:	e54b3025 	strb	r3, [fp, #-37]
30002c0c:	e59f20c8 	ldr	r2, [pc, #200]	; 30002cdc <fb_print_char+0xf0>
30002c10:	e55b3025 	ldrb	r3, [fp, #-37]
30002c14:	e1a03203 	lsl	r3, r3, #4
30002c18:	e0823003 	add	r3, r2, r3
30002c1c:	e50b3010 	str	r3, [fp, #-16]
30002c20:	e51b3024 	ldr	r3, [fp, #-36]
30002c24:	e50b3014 	str	r3, [fp, #-20]
30002c28:	ea000023 	b	30002cbc <fb_print_char+0xd0>
30002c2c:	e51b3010 	ldr	r3, [fp, #-16]
30002c30:	e5d33000 	ldrb	r3, [r3]
30002c34:	e54b3009 	strb	r3, [fp, #-9]
30002c38:	e51b3010 	ldr	r3, [fp, #-16]
30002c3c:	e2833001 	add	r3, r3, #1	; 0x1
30002c40:	e50b3010 	str	r3, [fp, #-16]
30002c44:	e3a03007 	mov	r3, #7	; 0x7
30002c48:	e50b3008 	str	r3, [fp, #-8]
30002c4c:	e51b3020 	ldr	r3, [fp, #-32]
30002c50:	e50b3018 	str	r3, [fp, #-24]
30002c54:	ea000010 	b	30002c9c <fb_print_char+0xb0>
30002c58:	e55b2009 	ldrb	r2, [fp, #-9]
30002c5c:	e51b3008 	ldr	r3, [fp, #-8]
30002c60:	e1a03352 	asr	r3, r2, r3
30002c64:	e2033001 	and	r3, r3, #1	; 0x1
30002c68:	e20330ff 	and	r3, r3, #255	; 0xff
30002c6c:	e3530000 	cmp	r3, #0	; 0x0
30002c70:	0a000003 	beq	30002c84 <fb_print_char+0x98>
30002c74:	e51b0018 	ldr	r0, [fp, #-24]
30002c78:	e51b1014 	ldr	r1, [fp, #-20]
30002c7c:	e51b202c 	ldr	r2, [fp, #-44]
30002c80:	ebfffe80 	bl	30002688 <fb_put_pixel>
30002c84:	e51b3008 	ldr	r3, [fp, #-8]
30002c88:	e2433001 	sub	r3, r3, #1	; 0x1
30002c8c:	e50b3008 	str	r3, [fp, #-8]
30002c90:	e51b3018 	ldr	r3, [fp, #-24]
30002c94:	e2833001 	add	r3, r3, #1	; 0x1
30002c98:	e50b3018 	str	r3, [fp, #-24]
30002c9c:	e51b3020 	ldr	r3, [fp, #-32]
30002ca0:	e2832008 	add	r2, r3, #8	; 0x8
30002ca4:	e51b3018 	ldr	r3, [fp, #-24]
30002ca8:	e1520003 	cmp	r2, r3
30002cac:	caffffe9 	bgt	30002c58 <fb_print_char+0x6c>
30002cb0:	e51b3014 	ldr	r3, [fp, #-20]
30002cb4:	e2833001 	add	r3, r3, #1	; 0x1
30002cb8:	e50b3014 	str	r3, [fp, #-20]
30002cbc:	e51b3024 	ldr	r3, [fp, #-36]
30002cc0:	e2832010 	add	r2, r3, #16	; 0x10
30002cc4:	e51b3014 	ldr	r3, [fp, #-20]
30002cc8:	e1520003 	cmp	r2, r3
30002ccc:	caffffd6 	bgt	30002c2c <fb_print_char+0x40>
30002cd0:	e24bd004 	sub	sp, fp, #4	; 0x4
30002cd4:	e8bd4800 	pop	{fp, lr}
30002cd8:	e12fff1e 	bx	lr
30002cdc:	3000543c 	.word	0x3000543c

30002ce0 <fb_print_string>:
30002ce0:	e92d4800 	push	{fp, lr}
30002ce4:	e28db004 	add	fp, sp, #4	; 0x4
30002ce8:	e24dd018 	sub	sp, sp, #24	; 0x18
30002cec:	e50b0010 	str	r0, [fp, #-16]
30002cf0:	e50b1014 	str	r1, [fp, #-20]
30002cf4:	e50b2018 	str	r2, [fp, #-24]
30002cf8:	e50b301c 	str	r3, [fp, #-28]
30002cfc:	e3a03000 	mov	r3, #0	; 0x0
30002d00:	e50b300c 	str	r3, [fp, #-12]
30002d04:	ea00002b 	b	30002db8 <fb_print_string+0xd8>
30002d08:	e51b200c 	ldr	r2, [fp, #-12]
30002d0c:	e51b3018 	ldr	r3, [fp, #-24]
30002d10:	e0833002 	add	r3, r3, r2
30002d14:	e5d33000 	ldrb	r3, [r3]
30002d18:	e353000a 	cmp	r3, #10	; 0xa
30002d1c:	1a000003 	bne	30002d30 <fb_print_string+0x50>
30002d20:	e51b3014 	ldr	r3, [fp, #-20]
30002d24:	e2833010 	add	r3, r3, #16	; 0x10
30002d28:	e50b3014 	str	r3, [fp, #-20]
30002d2c:	ea00001e 	b	30002dac <fb_print_string+0xcc>
30002d30:	e51b200c 	ldr	r2, [fp, #-12]
30002d34:	e51b3018 	ldr	r3, [fp, #-24]
30002d38:	e0833002 	add	r3, r3, r2
30002d3c:	e5d33000 	ldrb	r3, [r3]
30002d40:	e353000d 	cmp	r3, #13	; 0xd
30002d44:	1a000002 	bne	30002d54 <fb_print_string+0x74>
30002d48:	e3a03000 	mov	r3, #0	; 0x0
30002d4c:	e50b3010 	str	r3, [fp, #-16]
30002d50:	ea000015 	b	30002dac <fb_print_string+0xcc>
30002d54:	e51b200c 	ldr	r2, [fp, #-12]
30002d58:	e51b3018 	ldr	r3, [fp, #-24]
30002d5c:	e0833002 	add	r3, r3, r2
30002d60:	e5d33000 	ldrb	r3, [r3]
30002d64:	e51b0010 	ldr	r0, [fp, #-16]
30002d68:	e51b1014 	ldr	r1, [fp, #-20]
30002d6c:	e1a02003 	mov	r2, r3
30002d70:	e51b301c 	ldr	r3, [fp, #-28]
30002d74:	ebffff9c 	bl	30002bec <fb_print_char>
30002d78:	e51b3010 	ldr	r3, [fp, #-16]
30002d7c:	e2833008 	add	r3, r3, #8	; 0x8
30002d80:	e50b3010 	str	r3, [fp, #-16]
30002d84:	e59f3050 	ldr	r3, [pc, #80]	; 30002ddc <fb_print_string+0xfc>
30002d88:	e5932000 	ldr	r2, [r3]
30002d8c:	e51b3010 	ldr	r3, [fp, #-16]
30002d90:	e1530002 	cmp	r3, r2
30002d94:	ba000004 	blt	30002dac <fb_print_string+0xcc>
30002d98:	e3a03000 	mov	r3, #0	; 0x0
30002d9c:	e50b3010 	str	r3, [fp, #-16]
30002da0:	e51b3014 	ldr	r3, [fp, #-20]
30002da4:	e2833010 	add	r3, r3, #16	; 0x10
30002da8:	e50b3014 	str	r3, [fp, #-20]
30002dac:	e51b300c 	ldr	r3, [fp, #-12]
30002db0:	e2833001 	add	r3, r3, #1	; 0x1
30002db4:	e50b300c 	str	r3, [fp, #-12]
30002db8:	e51b200c 	ldr	r2, [fp, #-12]
30002dbc:	e51b3018 	ldr	r3, [fp, #-24]
30002dc0:	e0833002 	add	r3, r3, r2
30002dc4:	e5d33000 	ldrb	r3, [r3]
30002dc8:	e3530000 	cmp	r3, #0	; 0x0
30002dcc:	1affffcd 	bne	30002d08 <fb_print_string+0x28>
30002dd0:	e24bd004 	sub	sp, fp, #4	; 0x4
30002dd4:	e8bd4800 	pop	{fp, lr}
30002dd8:	e12fff1e 	bx	lr
30002ddc:	300068e0 	.word	0x300068e0

30002de0 <lcd_test>:
30002de0:	e92d4810 	push	{r4, fp, lr}
30002de4:	e28db008 	add	fp, sp, #8	; 0x8
30002de8:	e24dd02c 	sub	sp, sp, #44	; 0x2c
30002dec:	eb000262 	bl	3000377c <lcd_init>
30002df0:	eb000255 	bl	3000374c <lcd_enable>
30002df4:	e24b3020 	sub	r3, fp, #32	; 0x20
30002df8:	e24b2024 	sub	r2, fp, #36	; 0x24
30002dfc:	e24bc028 	sub	ip, fp, #40	; 0x28
30002e00:	e24b402c 	sub	r4, fp, #44	; 0x2c
30002e04:	e1a00003 	mov	r0, r3
30002e08:	e1a01002 	mov	r1, r2
30002e0c:	e1a0200c 	mov	r2, ip
30002e10:	e1a03004 	mov	r3, r4
30002e14:	eb00022d 	bl	300036d0 <get_lcd_params>
30002e18:	ebfffddd 	bl	30002594 <fb_get_lcd_params>
30002e1c:	ebffff64 	bl	30002bb4 <font_init>
30002e20:	e51b302c 	ldr	r3, [fp, #-44]
30002e24:	e3530010 	cmp	r3, #16	; 0x10
30002e28:	1a000070 	bne	30002ff0 <lcd_test+0x210>
30002e2c:	e51b3020 	ldr	r3, [fp, #-32]
30002e30:	e50b3014 	str	r3, [fp, #-20]
30002e34:	e3a03000 	mov	r3, #0	; 0x0
30002e38:	e50b301c 	str	r3, [fp, #-28]
30002e3c:	ea000012 	b	30002e8c <lcd_test+0xac>
30002e40:	e3a03000 	mov	r3, #0	; 0x0
30002e44:	e50b3018 	str	r3, [fp, #-24]
30002e48:	ea000008 	b	30002e70 <lcd_test+0x90>
30002e4c:	e51b2014 	ldr	r2, [fp, #-20]
30002e50:	e3a03b3e 	mov	r3, #63488	; 0xf800
30002e54:	e1c230b0 	strh	r3, [r2]
30002e58:	e51b3014 	ldr	r3, [fp, #-20]
30002e5c:	e2833002 	add	r3, r3, #2	; 0x2
30002e60:	e50b3014 	str	r3, [fp, #-20]
30002e64:	e51b3018 	ldr	r3, [fp, #-24]
30002e68:	e2833001 	add	r3, r3, #1	; 0x1
30002e6c:	e50b3018 	str	r3, [fp, #-24]
30002e70:	e51b2028 	ldr	r2, [fp, #-40]
30002e74:	e51b3018 	ldr	r3, [fp, #-24]
30002e78:	e1530002 	cmp	r3, r2
30002e7c:	bafffff2 	blt	30002e4c <lcd_test+0x6c>
30002e80:	e51b301c 	ldr	r3, [fp, #-28]
30002e84:	e2833001 	add	r3, r3, #1	; 0x1
30002e88:	e50b301c 	str	r3, [fp, #-28]
30002e8c:	e51b2024 	ldr	r2, [fp, #-36]
30002e90:	e51b301c 	ldr	r3, [fp, #-28]
30002e94:	e1530002 	cmp	r3, r2
30002e98:	baffffe8 	blt	30002e40 <lcd_test+0x60>
30002e9c:	e51b3020 	ldr	r3, [fp, #-32]
30002ea0:	e50b3014 	str	r3, [fp, #-20]
30002ea4:	e3a03000 	mov	r3, #0	; 0x0
30002ea8:	e50b301c 	str	r3, [fp, #-28]
30002eac:	ea000012 	b	30002efc <lcd_test+0x11c>
30002eb0:	e3a03000 	mov	r3, #0	; 0x0
30002eb4:	e50b3018 	str	r3, [fp, #-24]
30002eb8:	ea000008 	b	30002ee0 <lcd_test+0x100>
30002ebc:	e51b2014 	ldr	r2, [fp, #-20]
30002ec0:	e3a03e7e 	mov	r3, #2016	; 0x7e0
30002ec4:	e1c230b0 	strh	r3, [r2]
30002ec8:	e51b3014 	ldr	r3, [fp, #-20]
30002ecc:	e2833002 	add	r3, r3, #2	; 0x2
30002ed0:	e50b3014 	str	r3, [fp, #-20]
30002ed4:	e51b3018 	ldr	r3, [fp, #-24]
30002ed8:	e2833001 	add	r3, r3, #1	; 0x1
30002edc:	e50b3018 	str	r3, [fp, #-24]
30002ee0:	e51b2028 	ldr	r2, [fp, #-40]
30002ee4:	e51b3018 	ldr	r3, [fp, #-24]
30002ee8:	e1530002 	cmp	r3, r2
30002eec:	bafffff2 	blt	30002ebc <lcd_test+0xdc>
30002ef0:	e51b301c 	ldr	r3, [fp, #-28]
30002ef4:	e2833001 	add	r3, r3, #1	; 0x1
30002ef8:	e50b301c 	str	r3, [fp, #-28]
30002efc:	e51b2024 	ldr	r2, [fp, #-36]
30002f00:	e51b301c 	ldr	r3, [fp, #-28]
30002f04:	e1530002 	cmp	r3, r2
30002f08:	baffffe8 	blt	30002eb0 <lcd_test+0xd0>
30002f0c:	e51b3020 	ldr	r3, [fp, #-32]
30002f10:	e50b3014 	str	r3, [fp, #-20]
30002f14:	e3a03000 	mov	r3, #0	; 0x0
30002f18:	e50b301c 	str	r3, [fp, #-28]
30002f1c:	ea000012 	b	30002f6c <lcd_test+0x18c>
30002f20:	e3a03000 	mov	r3, #0	; 0x0
30002f24:	e50b3018 	str	r3, [fp, #-24]
30002f28:	ea000008 	b	30002f50 <lcd_test+0x170>
30002f2c:	e51b2014 	ldr	r2, [fp, #-20]
30002f30:	e3a0301f 	mov	r3, #31	; 0x1f
30002f34:	e1c230b0 	strh	r3, [r2]
30002f38:	e51b3014 	ldr	r3, [fp, #-20]
30002f3c:	e2833002 	add	r3, r3, #2	; 0x2
30002f40:	e50b3014 	str	r3, [fp, #-20]
30002f44:	e51b3018 	ldr	r3, [fp, #-24]
30002f48:	e2833001 	add	r3, r3, #1	; 0x1
30002f4c:	e50b3018 	str	r3, [fp, #-24]
30002f50:	e51b2028 	ldr	r2, [fp, #-40]
30002f54:	e51b3018 	ldr	r3, [fp, #-24]
30002f58:	e1530002 	cmp	r3, r2
30002f5c:	bafffff2 	blt	30002f2c <lcd_test+0x14c>
30002f60:	e51b301c 	ldr	r3, [fp, #-28]
30002f64:	e2833001 	add	r3, r3, #1	; 0x1
30002f68:	e50b301c 	str	r3, [fp, #-28]
30002f6c:	e51b2024 	ldr	r2, [fp, #-36]
30002f70:	e51b301c 	ldr	r3, [fp, #-28]
30002f74:	e1530002 	cmp	r3, r2
30002f78:	baffffe8 	blt	30002f20 <lcd_test+0x140>
30002f7c:	e51b3020 	ldr	r3, [fp, #-32]
30002f80:	e50b3014 	str	r3, [fp, #-20]
30002f84:	e3a03000 	mov	r3, #0	; 0x0
30002f88:	e50b301c 	str	r3, [fp, #-28]
30002f8c:	ea000012 	b	30002fdc <lcd_test+0x1fc>
30002f90:	e3a03000 	mov	r3, #0	; 0x0
30002f94:	e50b3018 	str	r3, [fp, #-24]
30002f98:	ea000008 	b	30002fc0 <lcd_test+0x1e0>
30002f9c:	e51b2014 	ldr	r2, [fp, #-20]
30002fa0:	e3a03000 	mov	r3, #0	; 0x0
30002fa4:	e1c230b0 	strh	r3, [r2]
30002fa8:	e51b3014 	ldr	r3, [fp, #-20]
30002fac:	e2833002 	add	r3, r3, #2	; 0x2
30002fb0:	e50b3014 	str	r3, [fp, #-20]
30002fb4:	e51b3018 	ldr	r3, [fp, #-24]
30002fb8:	e2833001 	add	r3, r3, #1	; 0x1
30002fbc:	e50b3018 	str	r3, [fp, #-24]
30002fc0:	e51b2028 	ldr	r2, [fp, #-40]
30002fc4:	e51b3018 	ldr	r3, [fp, #-24]
30002fc8:	e1530002 	cmp	r3, r2
30002fcc:	bafffff2 	blt	30002f9c <lcd_test+0x1bc>
30002fd0:	e51b301c 	ldr	r3, [fp, #-28]
30002fd4:	e2833001 	add	r3, r3, #1	; 0x1
30002fd8:	e50b301c 	str	r3, [fp, #-28]
30002fdc:	e51b2024 	ldr	r2, [fp, #-36]
30002fe0:	e51b301c 	ldr	r3, [fp, #-28]
30002fe4:	e1530002 	cmp	r3, r2
30002fe8:	baffffe8 	blt	30002f90 <lcd_test+0x1b0>
30002fec:	ea000072 	b	300031bc <lcd_test+0x3dc>
30002ff0:	e51b302c 	ldr	r3, [fp, #-44]
30002ff4:	e3530020 	cmp	r3, #32	; 0x20
30002ff8:	1a00006f 	bne	300031bc <lcd_test+0x3dc>
30002ffc:	e51b3020 	ldr	r3, [fp, #-32]
30003000:	e50b3010 	str	r3, [fp, #-16]
30003004:	e3a03000 	mov	r3, #0	; 0x0
30003008:	e50b301c 	str	r3, [fp, #-28]
3000300c:	ea000012 	b	3000305c <lcd_test+0x27c>
30003010:	e3a03000 	mov	r3, #0	; 0x0
30003014:	e50b3018 	str	r3, [fp, #-24]
30003018:	ea000008 	b	30003040 <lcd_test+0x260>
3000301c:	e51b2010 	ldr	r2, [fp, #-16]
30003020:	e3a038ff 	mov	r3, #16711680	; 0xff0000
30003024:	e5823000 	str	r3, [r2]
30003028:	e51b3010 	ldr	r3, [fp, #-16]
3000302c:	e2833004 	add	r3, r3, #4	; 0x4
30003030:	e50b3010 	str	r3, [fp, #-16]
30003034:	e51b3018 	ldr	r3, [fp, #-24]
30003038:	e2833001 	add	r3, r3, #1	; 0x1
3000303c:	e50b3018 	str	r3, [fp, #-24]
30003040:	e51b2028 	ldr	r2, [fp, #-40]
30003044:	e51b3018 	ldr	r3, [fp, #-24]
30003048:	e1530002 	cmp	r3, r2
3000304c:	bafffff2 	blt	3000301c <lcd_test+0x23c>
30003050:	e51b301c 	ldr	r3, [fp, #-28]
30003054:	e2833001 	add	r3, r3, #1	; 0x1
30003058:	e50b301c 	str	r3, [fp, #-28]
3000305c:	e51b2024 	ldr	r2, [fp, #-36]
30003060:	e51b301c 	ldr	r3, [fp, #-28]
30003064:	e1530002 	cmp	r3, r2
30003068:	baffffe8 	blt	30003010 <lcd_test+0x230>
3000306c:	e51b3020 	ldr	r3, [fp, #-32]
30003070:	e50b3010 	str	r3, [fp, #-16]
30003074:	e3a03000 	mov	r3, #0	; 0x0
30003078:	e50b301c 	str	r3, [fp, #-28]
3000307c:	ea000012 	b	300030cc <lcd_test+0x2ec>
30003080:	e3a03000 	mov	r3, #0	; 0x0
30003084:	e50b3018 	str	r3, [fp, #-24]
30003088:	ea000008 	b	300030b0 <lcd_test+0x2d0>
3000308c:	e51b2010 	ldr	r2, [fp, #-16]
30003090:	e3a03cff 	mov	r3, #65280	; 0xff00
30003094:	e5823000 	str	r3, [r2]
30003098:	e51b3010 	ldr	r3, [fp, #-16]
3000309c:	e2833004 	add	r3, r3, #4	; 0x4
300030a0:	e50b3010 	str	r3, [fp, #-16]
300030a4:	e51b3018 	ldr	r3, [fp, #-24]
300030a8:	e2833001 	add	r3, r3, #1	; 0x1
300030ac:	e50b3018 	str	r3, [fp, #-24]
300030b0:	e51b2028 	ldr	r2, [fp, #-40]
300030b4:	e51b3018 	ldr	r3, [fp, #-24]
300030b8:	e1530002 	cmp	r3, r2
300030bc:	bafffff2 	blt	3000308c <lcd_test+0x2ac>
300030c0:	e51b301c 	ldr	r3, [fp, #-28]
300030c4:	e2833001 	add	r3, r3, #1	; 0x1
300030c8:	e50b301c 	str	r3, [fp, #-28]
300030cc:	e51b2024 	ldr	r2, [fp, #-36]
300030d0:	e51b301c 	ldr	r3, [fp, #-28]
300030d4:	e1530002 	cmp	r3, r2
300030d8:	baffffe8 	blt	30003080 <lcd_test+0x2a0>
300030dc:	e51b3020 	ldr	r3, [fp, #-32]
300030e0:	e50b3010 	str	r3, [fp, #-16]
300030e4:	e3a03000 	mov	r3, #0	; 0x0
300030e8:	e50b301c 	str	r3, [fp, #-28]
300030ec:	ea000012 	b	3000313c <lcd_test+0x35c>
300030f0:	e3a03000 	mov	r3, #0	; 0x0
300030f4:	e50b3018 	str	r3, [fp, #-24]
300030f8:	ea000008 	b	30003120 <lcd_test+0x340>
300030fc:	e51b2010 	ldr	r2, [fp, #-16]
30003100:	e3a030ff 	mov	r3, #255	; 0xff
30003104:	e5823000 	str	r3, [r2]
30003108:	e51b3010 	ldr	r3, [fp, #-16]
3000310c:	e2833004 	add	r3, r3, #4	; 0x4
30003110:	e50b3010 	str	r3, [fp, #-16]
30003114:	e51b3018 	ldr	r3, [fp, #-24]
30003118:	e2833001 	add	r3, r3, #1	; 0x1
3000311c:	e50b3018 	str	r3, [fp, #-24]
30003120:	e51b2028 	ldr	r2, [fp, #-40]
30003124:	e51b3018 	ldr	r3, [fp, #-24]
30003128:	e1530002 	cmp	r3, r2
3000312c:	bafffff2 	blt	300030fc <lcd_test+0x31c>
30003130:	e51b301c 	ldr	r3, [fp, #-28]
30003134:	e2833001 	add	r3, r3, #1	; 0x1
30003138:	e50b301c 	str	r3, [fp, #-28]
3000313c:	e51b2024 	ldr	r2, [fp, #-36]
30003140:	e51b301c 	ldr	r3, [fp, #-28]
30003144:	e1530002 	cmp	r3, r2
30003148:	baffffe8 	blt	300030f0 <lcd_test+0x310>
3000314c:	e51b3020 	ldr	r3, [fp, #-32]
30003150:	e50b3010 	str	r3, [fp, #-16]
30003154:	e3a03000 	mov	r3, #0	; 0x0
30003158:	e50b301c 	str	r3, [fp, #-28]
3000315c:	ea000012 	b	300031ac <lcd_test+0x3cc>
30003160:	e3a03000 	mov	r3, #0	; 0x0
30003164:	e50b3018 	str	r3, [fp, #-24]
30003168:	ea000008 	b	30003190 <lcd_test+0x3b0>
3000316c:	e51b2010 	ldr	r2, [fp, #-16]
30003170:	e3a03000 	mov	r3, #0	; 0x0
30003174:	e5823000 	str	r3, [r2]
30003178:	e51b3010 	ldr	r3, [fp, #-16]
3000317c:	e2833004 	add	r3, r3, #4	; 0x4
30003180:	e50b3010 	str	r3, [fp, #-16]
30003184:	e51b3018 	ldr	r3, [fp, #-24]
30003188:	e2833001 	add	r3, r3, #1	; 0x1
3000318c:	e50b3018 	str	r3, [fp, #-24]
30003190:	e51b2028 	ldr	r2, [fp, #-40]
30003194:	e51b3018 	ldr	r3, [fp, #-24]
30003198:	e1530002 	cmp	r3, r2
3000319c:	bafffff2 	blt	3000316c <lcd_test+0x38c>
300031a0:	e51b301c 	ldr	r3, [fp, #-28]
300031a4:	e2833001 	add	r3, r3, #1	; 0x1
300031a8:	e50b301c 	str	r3, [fp, #-28]
300031ac:	e51b2024 	ldr	r2, [fp, #-36]
300031b0:	e51b301c 	ldr	r3, [fp, #-28]
300031b4:	e1530002 	cmp	r3, r2
300031b8:	baffffe8 	blt	30003160 <lcd_test+0x380>
300031bc:	e3a00ffa 	mov	r0, #1000	; 0x3e8
300031c0:	eb000296 	bl	30003c20 <delay>
300031c4:	e51b3024 	ldr	r3, [fp, #-36]
300031c8:	e2432001 	sub	r2, r3, #1	; 0x1
300031cc:	e3a038ff 	mov	r3, #16711680	; 0xff0000
300031d0:	e58d3000 	str	r3, [sp]
300031d4:	e3a00000 	mov	r0, #0	; 0x0
300031d8:	e3a01000 	mov	r1, #0	; 0x0
300031dc:	e3a03000 	mov	r3, #0	; 0x0
300031e0:	ebfffb98 	bl	30002048 <draw_line>
300031e4:	e51b3024 	ldr	r3, [fp, #-36]
300031e8:	e2432001 	sub	r2, r3, #1	; 0x1
300031ec:	e51b3024 	ldr	r3, [fp, #-36]
300031f0:	e243c001 	sub	ip, r3, #1	; 0x1
300031f4:	e51b3028 	ldr	r3, [fp, #-40]
300031f8:	e2434001 	sub	r4, r3, #1	; 0x1
300031fc:	e3a03401 	mov	r3, #16777216	; 0x1000000
30003200:	e2433c01 	sub	r3, r3, #256	; 0x100
30003204:	e58d3000 	str	r3, [sp]
30003208:	e1a00002 	mov	r0, r2
3000320c:	e3a01000 	mov	r1, #0	; 0x0
30003210:	e1a0200c 	mov	r2, ip
30003214:	e1a03004 	mov	r3, r4
30003218:	ebfffb8a 	bl	30002048 <draw_line>
3000321c:	e51b3028 	ldr	r3, [fp, #-40]
30003220:	e2432001 	sub	r2, r3, #1	; 0x1
30003224:	e51b3024 	ldr	r3, [fp, #-36]
30003228:	e243c001 	sub	ip, r3, #1	; 0x1
3000322c:	e51b3028 	ldr	r3, [fp, #-40]
30003230:	e2434001 	sub	r4, r3, #1	; 0x1
30003234:	e3a038ff 	mov	r3, #16711680	; 0xff0000
30003238:	e28330aa 	add	r3, r3, #170	; 0xaa
3000323c:	e58d3000 	str	r3, [sp]
30003240:	e3a00000 	mov	r0, #0	; 0x0
30003244:	e1a01002 	mov	r1, r2
30003248:	e1a0200c 	mov	r2, ip
3000324c:	e1a03004 	mov	r3, r4
30003250:	ebfffb7c 	bl	30002048 <draw_line>
30003254:	e51b3028 	ldr	r3, [fp, #-40]
30003258:	e243c001 	sub	ip, r3, #1	; 0x1
3000325c:	e3a038ff 	mov	r3, #16711680	; 0xff0000
30003260:	e28330ef 	add	r3, r3, #239	; 0xef
30003264:	e58d3000 	str	r3, [sp]
30003268:	e3a00000 	mov	r0, #0	; 0x0
3000326c:	e3a01000 	mov	r1, #0	; 0x0
30003270:	e3a02000 	mov	r2, #0	; 0x0
30003274:	e1a0300c 	mov	r3, ip
30003278:	ebfffb72 	bl	30002048 <draw_line>
3000327c:	e51b3024 	ldr	r3, [fp, #-36]
30003280:	e2432001 	sub	r2, r3, #1	; 0x1
30003284:	e51b3028 	ldr	r3, [fp, #-40]
30003288:	e243c001 	sub	ip, r3, #1	; 0x1
3000328c:	e3a038ff 	mov	r3, #16711680	; 0xff0000
30003290:	e2833c45 	add	r3, r3, #17664	; 0x4500
30003294:	e58d3000 	str	r3, [sp]
30003298:	e3a00000 	mov	r0, #0	; 0x0
3000329c:	e3a01000 	mov	r1, #0	; 0x0
300032a0:	e1a0300c 	mov	r3, ip
300032a4:	ebfffb67 	bl	30002048 <draw_line>
300032a8:	e51b3024 	ldr	r3, [fp, #-36]
300032ac:	e2432001 	sub	r2, r3, #1	; 0x1
300032b0:	e51b3028 	ldr	r3, [fp, #-40]
300032b4:	e243c001 	sub	ip, r3, #1	; 0x1
300032b8:	e3a038ff 	mov	r3, #16711680	; 0xff0000
300032bc:	e2833d1e 	add	r3, r3, #1920	; 0x780
300032c0:	e58d3000 	str	r3, [sp]
300032c4:	e1a00002 	mov	r0, r2
300032c8:	e3a01000 	mov	r1, #0	; 0x0
300032cc:	e3a02000 	mov	r2, #0	; 0x0
300032d0:	e1a0300c 	mov	r3, ip
300032d4:	ebfffb5b 	bl	30002048 <draw_line>
300032d8:	e3a00ffa 	mov	r0, #1000	; 0x3e8
300032dc:	eb00024f 	bl	30003c20 <delay>
300032e0:	e51b2024 	ldr	r2, [fp, #-36]
300032e4:	e1a03fa2 	lsr	r3, r2, #31
300032e8:	e0833002 	add	r3, r3, r2
300032ec:	e1a030c3 	asr	r3, r3, #1
300032f0:	e1a00003 	mov	r0, r3
300032f4:	e51b2028 	ldr	r2, [fp, #-40]
300032f8:	e1a03fa2 	lsr	r3, r2, #31
300032fc:	e0833002 	add	r3, r3, r2
30003300:	e1a030c3 	asr	r3, r3, #1
30003304:	e1a01003 	mov	r1, r3
30003308:	e51b3028 	ldr	r3, [fp, #-40]
3000330c:	e2832003 	add	r2, r3, #3	; 0x3
30003310:	e3530000 	cmp	r3, #0	; 0x0
30003314:	b1a03002 	movlt	r3, r2
30003318:	e1a03143 	asr	r3, r3, #2
3000331c:	e1a02003 	mov	r2, r3
30003320:	e3a03cff 	mov	r3, #65280	; 0xff00
30003324:	ebfffac1 	bl	30001e30 <draw_circle>
30003328:	e3a0000a 	mov	r0, #10	; 0xa
3000332c:	e3a0100a 	mov	r1, #10	; 0xa
30003330:	e59f2010 	ldr	r2, [pc, #16]	; 30003348 <lcd_test+0x568>
30003334:	e3a03cff 	mov	r3, #65280	; 0xff00
30003338:	ebfffe68 	bl	30002ce0 <fb_print_string>
3000333c:	e24bd008 	sub	sp, fp, #8	; 0x8
30003340:	e8bd4810 	pop	{r4, fp, lr}
30003344:	e12fff1e 	bx	lr
30003348:	30005400 	.word	0x30005400

3000334c <register_lcd_controller>:
3000334c:	e52db004 	push	{fp}		; (str fp, [sp, #-4]!)
30003350:	e28db000 	add	fp, sp, #0	; 0x0
30003354:	e24dd014 	sub	sp, sp, #20	; 0x14
30003358:	e50b0010 	str	r0, [fp, #-16]
3000335c:	e3a03000 	mov	r3, #0	; 0x0
30003360:	e50b3008 	str	r3, [fp, #-8]
30003364:	ea00000e 	b	300033a4 <register_lcd_controller+0x58>
30003368:	e51b3008 	ldr	r3, [fp, #-8]
3000336c:	e59f2058 	ldr	r2, [pc, #88]	; 300033cc <register_lcd_controller+0x80>
30003370:	e7923103 	ldr	r3, [r2, r3, lsl #2]
30003374:	e3530000 	cmp	r3, #0	; 0x0
30003378:	1a000006 	bne	30003398 <register_lcd_controller+0x4c>
3000337c:	e51b1008 	ldr	r1, [fp, #-8]
30003380:	e59f2044 	ldr	r2, [pc, #68]	; 300033cc <register_lcd_controller+0x80>
30003384:	e51b3010 	ldr	r3, [fp, #-16]
30003388:	e7823101 	str	r3, [r2, r1, lsl #2]
3000338c:	e51b3008 	ldr	r3, [fp, #-8]
30003390:	e50b3014 	str	r3, [fp, #-20]
30003394:	ea000007 	b	300033b8 <register_lcd_controller+0x6c>
30003398:	e51b3008 	ldr	r3, [fp, #-8]
3000339c:	e2833001 	add	r3, r3, #1	; 0x1
300033a0:	e50b3008 	str	r3, [fp, #-8]
300033a4:	e51b3008 	ldr	r3, [fp, #-8]
300033a8:	e3530009 	cmp	r3, #9	; 0x9
300033ac:	daffffed 	ble	30003368 <register_lcd_controller+0x1c>
300033b0:	e3e03000 	mvn	r3, #0	; 0x0
300033b4:	e50b3014 	str	r3, [fp, #-20]
300033b8:	e51b3014 	ldr	r3, [fp, #-20]
300033bc:	e1a00003 	mov	r0, r3
300033c0:	e28bd000 	add	sp, fp, #0	; 0x0
300033c4:	e8bd0800 	pop	{fp}
300033c8:	e12fff1e 	bx	lr
300033cc:	300068ec 	.word	0x300068ec

300033d0 <select_lcd_controller>:
300033d0:	e92d4800 	push	{fp, lr}
300033d4:	e28db004 	add	fp, sp, #4	; 0x4
300033d8:	e24dd010 	sub	sp, sp, #16	; 0x10
300033dc:	e50b0010 	str	r0, [fp, #-16]
300033e0:	e3a03000 	mov	r3, #0	; 0x0
300033e4:	e50b3008 	str	r3, [fp, #-8]
300033e8:	ea000019 	b	30003454 <select_lcd_controller+0x84>
300033ec:	e51b3008 	ldr	r3, [fp, #-8]
300033f0:	e59f2084 	ldr	r2, [pc, #132]	; 3000347c <select_lcd_controller+0xac>
300033f4:	e7923103 	ldr	r3, [r2, r3, lsl #2]
300033f8:	e3530000 	cmp	r3, #0	; 0x0
300033fc:	0a000011 	beq	30003448 <select_lcd_controller+0x78>
30003400:	e51b2008 	ldr	r2, [fp, #-8]
30003404:	e59f3070 	ldr	r3, [pc, #112]	; 3000347c <select_lcd_controller+0xac>
30003408:	e7933102 	ldr	r3, [r3, r2, lsl #2]
3000340c:	e5933000 	ldr	r3, [r3]
30003410:	e1a00003 	mov	r0, r3
30003414:	e51b1010 	ldr	r1, [fp, #-16]
30003418:	ebfff7ca 	bl	30001348 <strcmp>
3000341c:	e1a03000 	mov	r3, r0
30003420:	e3530000 	cmp	r3, #0	; 0x0
30003424:	1a000007 	bne	30003448 <select_lcd_controller+0x78>
30003428:	e51b2008 	ldr	r2, [fp, #-8]
3000342c:	e59f3048 	ldr	r3, [pc, #72]	; 3000347c <select_lcd_controller+0xac>
30003430:	e7932102 	ldr	r2, [r3, r2, lsl #2]
30003434:	e59f3044 	ldr	r3, [pc, #68]	; 30003480 <select_lcd_controller+0xb0>
30003438:	e5832000 	str	r2, [r3]
3000343c:	e51b3008 	ldr	r3, [fp, #-8]
30003440:	e50b3014 	str	r3, [fp, #-20]
30003444:	ea000007 	b	30003468 <select_lcd_controller+0x98>
30003448:	e51b3008 	ldr	r3, [fp, #-8]
3000344c:	e2833001 	add	r3, r3, #1	; 0x1
30003450:	e50b3008 	str	r3, [fp, #-8]
30003454:	e51b3008 	ldr	r3, [fp, #-8]
30003458:	e3530009 	cmp	r3, #9	; 0x9
3000345c:	daffffe2 	ble	300033ec <select_lcd_controller+0x1c>
30003460:	e3e03000 	mvn	r3, #0	; 0x0
30003464:	e50b3014 	str	r3, [fp, #-20]
30003468:	e51b3014 	ldr	r3, [fp, #-20]
3000346c:	e1a00003 	mov	r0, r3
30003470:	e24bd004 	sub	sp, fp, #4	; 0x4
30003474:	e8bd4800 	pop	{fp, lr}
30003478:	e12fff1e 	bx	lr
3000347c:	300068ec 	.word	0x300068ec
30003480:	30006914 	.word	0x30006914

30003484 <lcd_controller_init>:
30003484:	e92d4800 	push	{fp, lr}
30003488:	e28db004 	add	fp, sp, #4	; 0x4
3000348c:	e24dd008 	sub	sp, sp, #8	; 0x8
30003490:	e50b0008 	str	r0, [fp, #-8]
30003494:	e59f3048 	ldr	r3, [pc, #72]	; 300034e4 <lcd_controller_init+0x60>
30003498:	e5933000 	ldr	r3, [r3]
3000349c:	e3530000 	cmp	r3, #0	; 0x0
300034a0:	0a000008 	beq	300034c8 <lcd_controller_init+0x44>
300034a4:	e59f3038 	ldr	r3, [pc, #56]	; 300034e4 <lcd_controller_init+0x60>
300034a8:	e5933000 	ldr	r3, [r3]
300034ac:	e5933004 	ldr	r3, [r3, #4]
300034b0:	e51b0008 	ldr	r0, [fp, #-8]
300034b4:	e1a0e00f 	mov	lr, pc
300034b8:	e12fff13 	bx	r3
300034bc:	e3a03000 	mov	r3, #0	; 0x0
300034c0:	e50b300c 	str	r3, [fp, #-12]
300034c4:	ea000001 	b	300034d0 <lcd_controller_init+0x4c>
300034c8:	e3e03000 	mvn	r3, #0	; 0x0
300034cc:	e50b300c 	str	r3, [fp, #-12]
300034d0:	e51b300c 	ldr	r3, [fp, #-12]
300034d4:	e1a00003 	mov	r0, r3
300034d8:	e24bd004 	sub	sp, fp, #4	; 0x4
300034dc:	e8bd4800 	pop	{fp, lr}
300034e0:	e12fff1e 	bx	lr
300034e4:	30006914 	.word	0x30006914

300034e8 <lcd_controller_enable>:
300034e8:	e92d4800 	push	{fp, lr}
300034ec:	e28db004 	add	fp, sp, #4	; 0x4
300034f0:	e59f3028 	ldr	r3, [pc, #40]	; 30003520 <lcd_controller_enable+0x38>
300034f4:	e5933000 	ldr	r3, [r3]
300034f8:	e3530000 	cmp	r3, #0	; 0x0
300034fc:	0a000004 	beq	30003514 <lcd_controller_enable+0x2c>
30003500:	e59f3018 	ldr	r3, [pc, #24]	; 30003520 <lcd_controller_enable+0x38>
30003504:	e5933000 	ldr	r3, [r3]
30003508:	e5933008 	ldr	r3, [r3, #8]
3000350c:	e1a0e00f 	mov	lr, pc
30003510:	e12fff13 	bx	r3
30003514:	e24bd004 	sub	sp, fp, #4	; 0x4
30003518:	e8bd4800 	pop	{fp, lr}
3000351c:	e12fff1e 	bx	lr
30003520:	30006914 	.word	0x30006914

30003524 <lcd_controller_disable>:
30003524:	e92d4800 	push	{fp, lr}
30003528:	e28db004 	add	fp, sp, #4	; 0x4
3000352c:	e59f3028 	ldr	r3, [pc, #40]	; 3000355c <lcd_controller_disable+0x38>
30003530:	e5933000 	ldr	r3, [r3]
30003534:	e3530000 	cmp	r3, #0	; 0x0
30003538:	0a000004 	beq	30003550 <lcd_controller_disable+0x2c>
3000353c:	e59f3018 	ldr	r3, [pc, #24]	; 3000355c <lcd_controller_disable+0x38>
30003540:	e5933000 	ldr	r3, [r3]
30003544:	e593300c 	ldr	r3, [r3, #12]
30003548:	e1a0e00f 	mov	lr, pc
3000354c:	e12fff13 	bx	r3
30003550:	e24bd004 	sub	sp, fp, #4	; 0x4
30003554:	e8bd4800 	pop	{fp, lr}
30003558:	e12fff1e 	bx	lr
3000355c:	30006914 	.word	0x30006914

30003560 <lcd_contoller_add>:
30003560:	e92d4800 	push	{fp, lr}
30003564:	e28db004 	add	fp, sp, #4	; 0x4
30003568:	ebfffd89 	bl	30002b94 <s3c2440_lcd_contoller_add>
3000356c:	e24bd004 	sub	sp, fp, #4	; 0x4
30003570:	e8bd4800 	pop	{fp, lr}
30003574:	e12fff1e 	bx	lr

30003578 <lcd_4_3_add>:
30003578:	e92d4800 	push	{fp, lr}
3000357c:	e28db004 	add	fp, sp, #4	; 0x4
30003580:	e59f000c 	ldr	r0, [pc, #12]	; 30003594 <lcd_4_3_add+0x1c>
30003584:	eb000003 	bl	30003598 <register_lcd>
30003588:	e24bd004 	sub	sp, fp, #4	; 0x4
3000358c:	e8bd4800 	pop	{fp, lr}
30003590:	e12fff1e 	bx	lr
30003594:	30006804 	.word	0x30006804

30003598 <register_lcd>:
30003598:	e52db004 	push	{fp}		; (str fp, [sp, #-4]!)
3000359c:	e28db000 	add	fp, sp, #0	; 0x0
300035a0:	e24dd014 	sub	sp, sp, #20	; 0x14
300035a4:	e50b0010 	str	r0, [fp, #-16]
300035a8:	e3a03000 	mov	r3, #0	; 0x0
300035ac:	e50b3008 	str	r3, [fp, #-8]
300035b0:	ea00000e 	b	300035f0 <register_lcd+0x58>
300035b4:	e51b3008 	ldr	r3, [fp, #-8]
300035b8:	e59f2058 	ldr	r2, [pc, #88]	; 30003618 <register_lcd+0x80>
300035bc:	e7923103 	ldr	r3, [r2, r3, lsl #2]
300035c0:	e3530000 	cmp	r3, #0	; 0x0
300035c4:	1a000006 	bne	300035e4 <register_lcd+0x4c>
300035c8:	e51b1008 	ldr	r1, [fp, #-8]
300035cc:	e59f2044 	ldr	r2, [pc, #68]	; 30003618 <register_lcd+0x80>
300035d0:	e51b3010 	ldr	r3, [fp, #-16]
300035d4:	e7823101 	str	r3, [r2, r1, lsl #2]
300035d8:	e51b3008 	ldr	r3, [fp, #-8]
300035dc:	e50b3014 	str	r3, [fp, #-20]
300035e0:	ea000007 	b	30003604 <register_lcd+0x6c>
300035e4:	e51b3008 	ldr	r3, [fp, #-8]
300035e8:	e2833001 	add	r3, r3, #1	; 0x1
300035ec:	e50b3008 	str	r3, [fp, #-8]
300035f0:	e51b3008 	ldr	r3, [fp, #-8]
300035f4:	e3530009 	cmp	r3, #9	; 0x9
300035f8:	daffffed 	ble	300035b4 <register_lcd+0x1c>
300035fc:	e3e03000 	mvn	r3, #0	; 0x0
30003600:	e50b3014 	str	r3, [fp, #-20]
30003604:	e51b3014 	ldr	r3, [fp, #-20]
30003608:	e1a00003 	mov	r0, r3
3000360c:	e28bd000 	add	sp, fp, #0	; 0x0
30003610:	e8bd0800 	pop	{fp}
30003614:	e12fff1e 	bx	lr
30003618:	30006918 	.word	0x30006918

3000361c <select_lcd>:
3000361c:	e92d4800 	push	{fp, lr}
30003620:	e28db004 	add	fp, sp, #4	; 0x4
30003624:	e24dd010 	sub	sp, sp, #16	; 0x10
30003628:	e50b0010 	str	r0, [fp, #-16]
3000362c:	e3a03000 	mov	r3, #0	; 0x0
30003630:	e50b3008 	str	r3, [fp, #-8]
30003634:	ea000019 	b	300036a0 <select_lcd+0x84>
30003638:	e51b3008 	ldr	r3, [fp, #-8]
3000363c:	e59f2084 	ldr	r2, [pc, #132]	; 300036c8 <select_lcd+0xac>
30003640:	e7923103 	ldr	r3, [r2, r3, lsl #2]
30003644:	e3530000 	cmp	r3, #0	; 0x0
30003648:	0a000011 	beq	30003694 <select_lcd+0x78>
3000364c:	e51b2008 	ldr	r2, [fp, #-8]
30003650:	e59f3070 	ldr	r3, [pc, #112]	; 300036c8 <select_lcd+0xac>
30003654:	e7933102 	ldr	r3, [r3, r2, lsl #2]
30003658:	e5933000 	ldr	r3, [r3]
3000365c:	e1a00003 	mov	r0, r3
30003660:	e51b1010 	ldr	r1, [fp, #-16]
30003664:	ebfff737 	bl	30001348 <strcmp>
30003668:	e1a03000 	mov	r3, r0
3000366c:	e3530000 	cmp	r3, #0	; 0x0
30003670:	1a000007 	bne	30003694 <select_lcd+0x78>
30003674:	e51b2008 	ldr	r2, [fp, #-8]
30003678:	e59f3048 	ldr	r3, [pc, #72]	; 300036c8 <select_lcd+0xac>
3000367c:	e7932102 	ldr	r2, [r3, r2, lsl #2]
30003680:	e59f3044 	ldr	r3, [pc, #68]	; 300036cc <select_lcd+0xb0>
30003684:	e5832000 	str	r2, [r3]
30003688:	e51b3008 	ldr	r3, [fp, #-8]
3000368c:	e50b3014 	str	r3, [fp, #-20]
30003690:	ea000007 	b	300036b4 <select_lcd+0x98>
30003694:	e51b3008 	ldr	r3, [fp, #-8]
30003698:	e2833001 	add	r3, r3, #1	; 0x1
3000369c:	e50b3008 	str	r3, [fp, #-8]
300036a0:	e51b3008 	ldr	r3, [fp, #-8]
300036a4:	e3530009 	cmp	r3, #9	; 0x9
300036a8:	daffffe2 	ble	30003638 <select_lcd+0x1c>
300036ac:	e3e03000 	mvn	r3, #0	; 0x0
300036b0:	e50b3014 	str	r3, [fp, #-20]
300036b4:	e51b3014 	ldr	r3, [fp, #-20]
300036b8:	e1a00003 	mov	r0, r3
300036bc:	e24bd004 	sub	sp, fp, #4	; 0x4
300036c0:	e8bd4800 	pop	{fp, lr}
300036c4:	e12fff1e 	bx	lr
300036c8:	30006918 	.word	0x30006918
300036cc:	30006940 	.word	0x30006940

300036d0 <get_lcd_params>:
300036d0:	e52db004 	push	{fp}		; (str fp, [sp, #-4]!)
300036d4:	e28db000 	add	fp, sp, #0	; 0x0
300036d8:	e24dd014 	sub	sp, sp, #20	; 0x14
300036dc:	e50b0008 	str	r0, [fp, #-8]
300036e0:	e50b100c 	str	r1, [fp, #-12]
300036e4:	e50b2010 	str	r2, [fp, #-16]
300036e8:	e50b3014 	str	r3, [fp, #-20]
300036ec:	e59f3054 	ldr	r3, [pc, #84]	; 30003748 <get_lcd_params+0x78>
300036f0:	e5933000 	ldr	r3, [r3]
300036f4:	e5932044 	ldr	r2, [r3, #68]
300036f8:	e51b3008 	ldr	r3, [fp, #-8]
300036fc:	e5832000 	str	r2, [r3]
30003700:	e59f3040 	ldr	r3, [pc, #64]	; 30003748 <get_lcd_params+0x78>
30003704:	e5933000 	ldr	r3, [r3]
30003708:	e5932038 	ldr	r2, [r3, #56]
3000370c:	e51b300c 	ldr	r3, [fp, #-12]
30003710:	e5832000 	str	r2, [r3]
30003714:	e59f302c 	ldr	r3, [pc, #44]	; 30003748 <get_lcd_params+0x78>
30003718:	e5933000 	ldr	r3, [r3]
3000371c:	e593203c 	ldr	r2, [r3, #60]
30003720:	e51b3010 	ldr	r3, [fp, #-16]
30003724:	e5832000 	str	r2, [r3]
30003728:	e59f3018 	ldr	r3, [pc, #24]	; 30003748 <get_lcd_params+0x78>
3000372c:	e5933000 	ldr	r3, [r3]
30003730:	e5932040 	ldr	r2, [r3, #64]
30003734:	e51b3014 	ldr	r3, [fp, #-20]
30003738:	e5832000 	str	r2, [r3]
3000373c:	e28bd000 	add	sp, fp, #0	; 0x0
30003740:	e8bd0800 	pop	{fp}
30003744:	e12fff1e 	bx	lr
30003748:	30006940 	.word	0x30006940

3000374c <lcd_enable>:
3000374c:	e92d4800 	push	{fp, lr}
30003750:	e28db004 	add	fp, sp, #4	; 0x4
30003754:	ebffff63 	bl	300034e8 <lcd_controller_enable>
30003758:	e24bd004 	sub	sp, fp, #4	; 0x4
3000375c:	e8bd4800 	pop	{fp, lr}
30003760:	e12fff1e 	bx	lr

30003764 <lcd_disable>:
30003764:	e92d4800 	push	{fp, lr}
30003768:	e28db004 	add	fp, sp, #4	; 0x4
3000376c:	ebffff6c 	bl	30003524 <lcd_controller_disable>
30003770:	e24bd004 	sub	sp, fp, #4	; 0x4
30003774:	e8bd4800 	pop	{fp, lr}
30003778:	e12fff1e 	bx	lr

3000377c <lcd_init>:
3000377c:	e92d4800 	push	{fp, lr}
30003780:	e28db004 	add	fp, sp, #4	; 0x4
30003784:	e24dd008 	sub	sp, sp, #8	; 0x8
30003788:	ebffff7a 	bl	30003578 <lcd_4_3_add>
3000378c:	ebffff73 	bl	30003560 <lcd_contoller_add>
30003790:	e59f0024 	ldr	r0, [pc, #36]	; 300037bc <lcd_init+0x40>
30003794:	ebffffa0 	bl	3000361c <select_lcd>
30003798:	e59f0020 	ldr	r0, [pc, #32]	; 300037c0 <lcd_init+0x44>
3000379c:	ebffff0b 	bl	300033d0 <select_lcd_controller>
300037a0:	e59f301c 	ldr	r3, [pc, #28]	; 300037c4 <lcd_init+0x48>
300037a4:	e5933000 	ldr	r3, [r3]
300037a8:	e1a00003 	mov	r0, r3
300037ac:	ebffff34 	bl	30003484 <lcd_controller_init>
300037b0:	e24bd004 	sub	sp, fp, #4	; 0x4
300037b4:	e8bd4800 	pop	{fp, lr}
300037b8:	e12fff1e 	bx	lr
300037bc:	3000542c 	.word	0x3000542c
300037c0:	30005434 	.word	0x30005434
300037c4:	30006940 	.word	0x30006940

300037c8 <uart0_config>:
300037c8:	e92d4800 	push	{fp, lr}
300037cc:	e28db004 	add	fp, sp, #4	; 0x4
300037d0:	e3a00456 	mov	r0, #1442840576	; 0x56000000
300037d4:	e2800070 	add	r0, r0, #112	; 0x70
300037d8:	e3a010f0 	mov	r1, #240	; 0xf0
300037dc:	e3a020a0 	mov	r2, #160	; 0xa0
300037e0:	eb000533 	bl	30004cb4 <gpio_set>
300037e4:	e3a00456 	mov	r0, #1442840576	; 0x56000000
300037e8:	e2800078 	add	r0, r0, #120	; 0x78
300037ec:	e3a0100c 	mov	r1, #12	; 0xc
300037f0:	e3a02000 	mov	r2, #0	; 0x0
300037f4:	eb00052e 	bl	30004cb4 <gpio_set>
300037f8:	e3a02245 	mov	r2, #1342177284	; 0x50000004
300037fc:	e3a03005 	mov	r3, #5	; 0x5
30003800:	e5823000 	str	r3, [r2]
30003804:	e3a03205 	mov	r3, #1342177280	; 0x50000000
30003808:	e2833028 	add	r3, r3, #40	; 0x28
3000380c:	e3a0201a 	mov	r2, #26	; 0x1a
30003810:	e5832000 	str	r2, [r3]
30003814:	e3a02205 	mov	r2, #1342177280	; 0x50000000
30003818:	e3a03003 	mov	r3, #3	; 0x3
3000381c:	e5823000 	str	r3, [r2]
30003820:	e24bd004 	sub	sp, fp, #4	; 0x4
30003824:	e8bd4800 	pop	{fp, lr}
30003828:	e12fff1e 	bx	lr

3000382c <putchar>:
3000382c:	e92d4800 	push	{fp, lr}
30003830:	e28db004 	add	fp, sp, #4	; 0x4
30003834:	e24dd008 	sub	sp, sp, #8	; 0x8
30003838:	e50b0008 	str	r0, [fp, #-8]
3000383c:	e3a00205 	mov	r0, #1342177280	; 0x50000000
30003840:	e2800010 	add	r0, r0, #16	; 0x10
30003844:	e3a01002 	mov	r1, #2	; 0x2
30003848:	eb000009 	bl	30003874 <get_gpio>
3000384c:	e1a03000 	mov	r3, r0
30003850:	e3530000 	cmp	r3, #0	; 0x0
30003854:	0afffff8 	beq	3000383c <putchar+0x10>
30003858:	e3a03205 	mov	r3, #1342177280	; 0x50000000
3000385c:	e2833020 	add	r3, r3, #32	; 0x20
30003860:	e51b2008 	ldr	r2, [fp, #-8]
30003864:	e5832000 	str	r2, [r3]
30003868:	e24bd004 	sub	sp, fp, #4	; 0x4
3000386c:	e8bd4800 	pop	{fp, lr}
30003870:	e12fff1e 	bx	lr

30003874 <get_gpio>:
30003874:	e52db004 	push	{fp}		; (str fp, [sp, #-4]!)
30003878:	e28db000 	add	fp, sp, #0	; 0x0
3000387c:	e24dd00c 	sub	sp, sp, #12	; 0xc
30003880:	e50b0008 	str	r0, [fp, #-8]
30003884:	e50b100c 	str	r1, [fp, #-12]
30003888:	e51b3008 	ldr	r3, [fp, #-8]
3000388c:	e5932000 	ldr	r2, [r3]
30003890:	e51b300c 	ldr	r3, [fp, #-12]
30003894:	e1a03332 	lsr	r3, r2, r3
30003898:	e2033001 	and	r3, r3, #1	; 0x1
3000389c:	e1a00003 	mov	r0, r3
300038a0:	e28bd000 	add	sp, fp, #0	; 0x0
300038a4:	e8bd0800 	pop	{fp}
300038a8:	e12fff1e 	bx	lr

300038ac <getchar>:
300038ac:	e92d4800 	push	{fp, lr}
300038b0:	e28db004 	add	fp, sp, #4	; 0x4
300038b4:	e3a00205 	mov	r0, #1342177280	; 0x50000000
300038b8:	e2800010 	add	r0, r0, #16	; 0x10
300038bc:	e3a01000 	mov	r1, #0	; 0x0
300038c0:	ebffffeb 	bl	30003874 <get_gpio>
300038c4:	e1a03000 	mov	r3, r0
300038c8:	e3530000 	cmp	r3, #0	; 0x0
300038cc:	0afffff8 	beq	300038b4 <getchar+0x8>
300038d0:	e3a03205 	mov	r3, #1342177280	; 0x50000000
300038d4:	e2833024 	add	r3, r3, #36	; 0x24
300038d8:	e5933000 	ldr	r3, [r3]
300038dc:	e1a00003 	mov	r0, r3
300038e0:	e24bd004 	sub	sp, fp, #4	; 0x4
300038e4:	e8bd4800 	pop	{fp, lr}
300038e8:	e12fff1e 	bx	lr

300038ec <getchar_nowaiting>:
300038ec:	e92d4800 	push	{fp, lr}
300038f0:	e28db004 	add	fp, sp, #4	; 0x4
300038f4:	e24dd008 	sub	sp, sp, #8	; 0x8
300038f8:	e3a00205 	mov	r0, #1342177280	; 0x50000000
300038fc:	e2800010 	add	r0, r0, #16	; 0x10
30003900:	e3a01000 	mov	r1, #0	; 0x0
30003904:	ebffffda 	bl	30003874 <get_gpio>
30003908:	e1a03000 	mov	r3, r0
3000390c:	e3530000 	cmp	r3, #0	; 0x0
30003910:	1a000002 	bne	30003920 <getchar_nowaiting+0x34>
30003914:	e3e03000 	mvn	r3, #0	; 0x0
30003918:	e50b3008 	str	r3, [fp, #-8]
3000391c:	ea000003 	b	30003930 <getchar_nowaiting+0x44>
30003920:	e3a03205 	mov	r3, #1342177280	; 0x50000000
30003924:	e2833024 	add	r3, r3, #36	; 0x24
30003928:	e5933000 	ldr	r3, [r3]
3000392c:	e50b3008 	str	r3, [fp, #-8]
30003930:	e51b3008 	ldr	r3, [fp, #-8]
30003934:	e1a00003 	mov	r0, r3
30003938:	e24bd004 	sub	sp, fp, #4	; 0x4
3000393c:	e8bd4800 	pop	{fp, lr}
30003940:	e12fff1e 	bx	lr

30003944 <puts>:
30003944:	e92d4800 	push	{fp, lr}
30003948:	e28db004 	add	fp, sp, #4	; 0x4
3000394c:	e24dd010 	sub	sp, sp, #16	; 0x10
30003950:	e50b0010 	str	r0, [fp, #-16]
30003954:	e3a03000 	mov	r3, #0	; 0x0
30003958:	e50b3008 	str	r3, [fp, #-8]
3000395c:	ea000009 	b	30003988 <puts+0x44>
30003960:	e51b3010 	ldr	r3, [fp, #-16]
30003964:	e5d33000 	ldrb	r3, [r3]
30003968:	e1a00003 	mov	r0, r3
3000396c:	ebffffae 	bl	3000382c <putchar>
30003970:	e51b3010 	ldr	r3, [fp, #-16]
30003974:	e2833001 	add	r3, r3, #1	; 0x1
30003978:	e50b3010 	str	r3, [fp, #-16]
3000397c:	e51b3008 	ldr	r3, [fp, #-8]
30003980:	e2833001 	add	r3, r3, #1	; 0x1
30003984:	e50b3008 	str	r3, [fp, #-8]
30003988:	e51b3010 	ldr	r3, [fp, #-16]
3000398c:	e5d33000 	ldrb	r3, [r3]
30003990:	e3530000 	cmp	r3, #0	; 0x0
30003994:	1afffff1 	bne	30003960 <puts+0x1c>
30003998:	e51b3008 	ldr	r3, [fp, #-8]
3000399c:	e1a00003 	mov	r0, r3
300039a0:	e24bd004 	sub	sp, fp, #4	; 0x4
300039a4:	e8bd4800 	pop	{fp, lr}
300039a8:	e12fff1e 	bx	lr

300039ac <adc_config>:
300039ac:	e92d4800 	push	{fp, lr}
300039b0:	e28db004 	add	fp, sp, #4	; 0x4
300039b4:	e24dd008 	sub	sp, sp, #8	; 0x8
300039b8:	e1a03000 	mov	r3, r0
300039bc:	e54b3005 	strb	r3, [fp, #-5]
300039c0:	e55b3005 	ldrb	r3, [fp, #-5]
300039c4:	e1a03183 	lsl	r3, r3, #3
300039c8:	e3833b13 	orr	r3, r3, #19456	; 0x4c00
300039cc:	e3833040 	orr	r3, r3, #64	; 0x40
300039d0:	e3a00316 	mov	r0, #1476395008	; 0x58000000
300039d4:	e3a01801 	mov	r1, #65536	; 0x10000
300039d8:	e2411001 	sub	r1, r1, #1	; 0x1
300039dc:	e1a02003 	mov	r2, r3
300039e0:	eb0004b3 	bl	30004cb4 <gpio_set>
300039e4:	e3a03316 	mov	r3, #1476395008	; 0x58000000
300039e8:	e2833008 	add	r3, r3, #8	; 0x8
300039ec:	e3a020ff 	mov	r2, #255	; 0xff
300039f0:	e5832000 	str	r2, [r3]
300039f4:	e24bd004 	sub	sp, fp, #4	; 0x4
300039f8:	e8bd4800 	pop	{fp, lr}
300039fc:	e12fff1e 	bx	lr

30003a00 <adc_read>:
30003a00:	e52db004 	push	{fp}		; (str fp, [sp, #-4]!)
30003a04:	e28db000 	add	fp, sp, #0	; 0x0
30003a08:	e3a02316 	mov	r2, #1476395008	; 0x58000000
30003a0c:	e3a03316 	mov	r3, #1476395008	; 0x58000000
30003a10:	e5933000 	ldr	r3, [r3]
30003a14:	e3833001 	orr	r3, r3, #1	; 0x1
30003a18:	e5823000 	str	r3, [r2]
30003a1c:	e3a03316 	mov	r3, #1476395008	; 0x58000000
30003a20:	e5933000 	ldr	r3, [r3]
30003a24:	e2033902 	and	r3, r3, #32768	; 0x8000
30003a28:	e3530000 	cmp	r3, #0	; 0x0
30003a2c:	0afffffa 	beq	30003a1c <adc_read+0x1c>
30003a30:	e3a03316 	mov	r3, #1476395008	; 0x58000000
30003a34:	e283300c 	add	r3, r3, #12	; 0xc
30003a38:	e5933000 	ldr	r3, [r3]
30003a3c:	e1a03b03 	lsl	r3, r3, #22
30003a40:	e1a03b23 	lsr	r3, r3, #22
30003a44:	e1a00003 	mov	r0, r3
30003a48:	e28bd000 	add	sp, fp, #0	; 0x0
30003a4c:	e8bd0800 	pop	{fp}
30003a50:	e12fff1e 	bx	lr

30003a54 <led_config>:
30003a54:	e92d4800 	push	{fp, lr}
30003a58:	e28db004 	add	fp, sp, #4	; 0x4
30003a5c:	e3a00456 	mov	r0, #1442840576	; 0x56000000
30003a60:	e2800050 	add	r0, r0, #80	; 0x50
30003a64:	e3a01c3f 	mov	r1, #16128	; 0x3f00
30003a68:	e3a02c15 	mov	r2, #5376	; 0x1500
30003a6c:	eb000490 	bl	30004cb4 <gpio_set>
30003a70:	e3a00456 	mov	r0, #1442840576	; 0x56000000
30003a74:	e2800054 	add	r0, r0, #84	; 0x54
30003a78:	e3a01070 	mov	r1, #112	; 0x70
30003a7c:	e3a02070 	mov	r2, #112	; 0x70
30003a80:	eb00048b 	bl	30004cb4 <gpio_set>
30003a84:	e24bd004 	sub	sp, fp, #4	; 0x4
30003a88:	e8bd4800 	pop	{fp, lr}
30003a8c:	e12fff1e 	bx	lr

30003a90 <led1on>:
30003a90:	e92d4800 	push	{fp, lr}
30003a94:	e28db004 	add	fp, sp, #4	; 0x4
30003a98:	e3a00456 	mov	r0, #1442840576	; 0x56000000
30003a9c:	e2800054 	add	r0, r0, #84	; 0x54
30003aa0:	e3a01010 	mov	r1, #16	; 0x10
30003aa4:	e3a02000 	mov	r2, #0	; 0x0
30003aa8:	eb000481 	bl	30004cb4 <gpio_set>
30003aac:	e24bd004 	sub	sp, fp, #4	; 0x4
30003ab0:	e8bd4800 	pop	{fp, lr}
30003ab4:	e12fff1e 	bx	lr

30003ab8 <led1off>:
30003ab8:	e92d4800 	push	{fp, lr}
30003abc:	e28db004 	add	fp, sp, #4	; 0x4
30003ac0:	e3a00456 	mov	r0, #1442840576	; 0x56000000
30003ac4:	e2800054 	add	r0, r0, #84	; 0x54
30003ac8:	e3a01010 	mov	r1, #16	; 0x10
30003acc:	e3a02010 	mov	r2, #16	; 0x10
30003ad0:	eb000477 	bl	30004cb4 <gpio_set>
30003ad4:	e24bd004 	sub	sp, fp, #4	; 0x4
30003ad8:	e8bd4800 	pop	{fp, lr}
30003adc:	e12fff1e 	bx	lr

30003ae0 <timer0_config>:
30003ae0:	e92d4800 	push	{fp, lr}
30003ae4:	e28db004 	add	fp, sp, #4	; 0x4
30003ae8:	e59f307c 	ldr	r3, [pc, #124]	; 30003b6c <timer0_config+0x8c>
30003aec:	e5933000 	ldr	r3, [r3]
30003af0:	e3530000 	cmp	r3, #0	; 0x0
30003af4:	1a000000 	bne	30003afc <timer0_config+0x1c>
30003af8:	eb00001c 	bl	30003b70 <clk_init>
30003afc:	e3a00451 	mov	r0, #1358954496	; 0x51000000
30003b00:	e2800004 	add	r0, r0, #4	; 0x4
30003b04:	e3a0100f 	mov	r1, #15	; 0xf
30003b08:	e3a02003 	mov	r2, #3	; 0x3
30003b0c:	eb000468 	bl	30004cb4 <gpio_set>
30003b10:	e3a02451 	mov	r2, #1358954496	; 0x51000000
30003b14:	e282200c 	add	r2, r2, #12	; 0xc
30003b18:	e3a03c3d 	mov	r3, #15616	; 0x3d00
30003b1c:	e2833009 	add	r3, r3, #9	; 0x9
30003b20:	e5823000 	str	r3, [r2]
30003b24:	e3a00451 	mov	r0, #1358954496	; 0x51000000
30003b28:	e2800008 	add	r0, r0, #8	; 0x8
30003b2c:	e3a01002 	mov	r1, #2	; 0x2
30003b30:	e3a02002 	mov	r2, #2	; 0x2
30003b34:	eb00045e 	bl	30004cb4 <gpio_set>
30003b38:	e3a00451 	mov	r0, #1358954496	; 0x51000000
30003b3c:	e2800008 	add	r0, r0, #8	; 0x8
30003b40:	e3a0101f 	mov	r1, #31	; 0x1f
30003b44:	e3a02009 	mov	r2, #9	; 0x9
30003b48:	eb000459 	bl	30004cb4 <gpio_set>
30003b4c:	e3a0044a 	mov	r0, #1241513984	; 0x4a000000
30003b50:	e2800008 	add	r0, r0, #8	; 0x8
30003b54:	e3a01b01 	mov	r1, #1024	; 0x400
30003b58:	e3a02000 	mov	r2, #0	; 0x0
30003b5c:	eb000454 	bl	30004cb4 <gpio_set>
30003b60:	e24bd004 	sub	sp, fp, #4	; 0x4
30003b64:	e8bd4800 	pop	{fp, lr}
30003b68:	e12fff1e 	bx	lr
30003b6c:	30006944 	.word	0x30006944

30003b70 <clk_init>:
30003b70:	e52db004 	push	{fp}		; (str fp, [sp, #-4]!)
30003b74:	e28db000 	add	fp, sp, #0	; 0x0
30003b78:	e24dd00c 	sub	sp, sp, #12	; 0xc
30003b7c:	e3a02451 	mov	r2, #1358954496	; 0x51000000
30003b80:	e3a03063 	mov	r3, #99	; 0x63
30003b84:	e5823000 	str	r3, [r2]
30003b88:	e28bd000 	add	sp, fp, #0	; 0x0
30003b8c:	e8bd0800 	pop	{fp}
30003b90:	e12fff1e 	bx	lr

30003b94 <timer1_config>:
30003b94:	e92d4800 	push	{fp, lr}
30003b98:	e28db004 	add	fp, sp, #4	; 0x4
30003b9c:	e59f3078 	ldr	r3, [pc, #120]	; 30003c1c <timer1_config+0x88>
30003ba0:	e5933000 	ldr	r3, [r3]
30003ba4:	e3530000 	cmp	r3, #0	; 0x0
30003ba8:	1a000000 	bne	30003bb0 <timer1_config+0x1c>
30003bac:	ebffffef 	bl	30003b70 <clk_init>
30003bb0:	e3a00451 	mov	r0, #1358954496	; 0x51000000
30003bb4:	e2800004 	add	r0, r0, #4	; 0x4
30003bb8:	e3a01000 	mov	r1, #0	; 0x0
30003bbc:	e3a02000 	mov	r2, #0	; 0x0
30003bc0:	eb00043b 	bl	30004cb4 <gpio_set>
30003bc4:	e3a03451 	mov	r3, #1358954496	; 0x51000000
30003bc8:	e2833018 	add	r3, r3, #24	; 0x18
30003bcc:	e3a020fa 	mov	r2, #250	; 0xfa
30003bd0:	e5832000 	str	r2, [r3]
30003bd4:	e3a00451 	mov	r0, #1358954496	; 0x51000000
30003bd8:	e2800008 	add	r0, r0, #8	; 0x8
30003bdc:	e3a01c02 	mov	r1, #512	; 0x200
30003be0:	e3a02c02 	mov	r2, #512	; 0x200
30003be4:	eb000432 	bl	30004cb4 <gpio_set>
30003be8:	e3a00451 	mov	r0, #1358954496	; 0x51000000
30003bec:	e2800008 	add	r0, r0, #8	; 0x8
30003bf0:	e3a01c0f 	mov	r1, #3840	; 0xf00
30003bf4:	e3a02c09 	mov	r2, #2304	; 0x900
30003bf8:	eb00042d 	bl	30004cb4 <gpio_set>
30003bfc:	e3a0044a 	mov	r0, #1241513984	; 0x4a000000
30003c00:	e2800008 	add	r0, r0, #8	; 0x8
30003c04:	e3a01b02 	mov	r1, #2048	; 0x800
30003c08:	e3a02000 	mov	r2, #0	; 0x0
30003c0c:	eb000428 	bl	30004cb4 <gpio_set>
30003c10:	e24bd004 	sub	sp, fp, #4	; 0x4
30003c14:	e8bd4800 	pop	{fp, lr}
30003c18:	e12fff1e 	bx	lr
30003c1c:	30006944 	.word	0x30006944

30003c20 <delay>:
30003c20:	e52db004 	push	{fp}		; (str fp, [sp, #-4]!)
30003c24:	e28db000 	add	fp, sp, #0	; 0x0
30003c28:	e24dd014 	sub	sp, sp, #20	; 0x14
30003c2c:	e50b0010 	str	r0, [fp, #-16]
30003c30:	e59f302c 	ldr	r3, [pc, #44]	; 30003c64 <delay+0x44>
30003c34:	e5932000 	ldr	r2, [r3]
30003c38:	e51b3010 	ldr	r3, [fp, #-16]
30003c3c:	e0823003 	add	r3, r2, r3
30003c40:	e50b3008 	str	r3, [fp, #-8]
30003c44:	e59f3018 	ldr	r3, [pc, #24]	; 30003c64 <delay+0x44>
30003c48:	e5932000 	ldr	r2, [r3]
30003c4c:	e51b3008 	ldr	r3, [fp, #-8]
30003c50:	e1520003 	cmp	r2, r3
30003c54:	3afffffa 	bcc	30003c44 <delay+0x24>
30003c58:	e28bd000 	add	sp, fp, #0	; 0x0
30003c5c:	e8bd0800 	pop	{fp}
30003c60:	e12fff1e 	bx	lr
30003c64:	30006948 	.word	0x30006948

30003c68 <nor_write_word>:
30003c68:	e52db004 	push	{fp}		; (str fp, [sp, #-4]!)
30003c6c:	e28db000 	add	fp, sp, #0	; 0x0
30003c70:	e24dd01c 	sub	sp, sp, #28	; 0x1c
30003c74:	e50b0010 	str	r0, [fp, #-16]
30003c78:	e50b1014 	str	r1, [fp, #-20]
30003c7c:	e50b2018 	str	r2, [fp, #-24]
30003c80:	e51b3014 	ldr	r3, [fp, #-20]
30003c84:	e1a02083 	lsl	r2, r3, #1
30003c88:	e51b3010 	ldr	r3, [fp, #-16]
30003c8c:	e0823003 	add	r3, r2, r3
30003c90:	e50b3008 	str	r3, [fp, #-8]
30003c94:	e51b3018 	ldr	r3, [fp, #-24]
30003c98:	e1a03803 	lsl	r3, r3, #16
30003c9c:	e1a02823 	lsr	r2, r3, #16
30003ca0:	e51b3008 	ldr	r3, [fp, #-8]
30003ca4:	e1c320b0 	strh	r2, [r3]
30003ca8:	e28bd000 	add	sp, fp, #0	; 0x0
30003cac:	e8bd0800 	pop	{fp}
30003cb0:	e12fff1e 	bx	lr

30003cb4 <nor_cmd>:
30003cb4:	e92d4800 	push	{fp, lr}
30003cb8:	e28db004 	add	fp, sp, #4	; 0x4
30003cbc:	e24dd008 	sub	sp, sp, #8	; 0x8
30003cc0:	e50b0008 	str	r0, [fp, #-8]
30003cc4:	e50b100c 	str	r1, [fp, #-12]
30003cc8:	e3a00000 	mov	r0, #0	; 0x0
30003ccc:	e51b1008 	ldr	r1, [fp, #-8]
30003cd0:	e51b200c 	ldr	r2, [fp, #-12]
30003cd4:	ebffffe3 	bl	30003c68 <nor_write_word>
30003cd8:	e24bd004 	sub	sp, fp, #4	; 0x4
30003cdc:	e8bd4800 	pop	{fp, lr}
30003ce0:	e12fff1e 	bx	lr

30003ce4 <nor_read_word>:
30003ce4:	e52db004 	push	{fp}		; (str fp, [sp, #-4]!)
30003ce8:	e28db000 	add	fp, sp, #0	; 0x0
30003cec:	e24dd014 	sub	sp, sp, #20	; 0x14
30003cf0:	e50b0010 	str	r0, [fp, #-16]
30003cf4:	e50b1014 	str	r1, [fp, #-20]
30003cf8:	e51b3014 	ldr	r3, [fp, #-20]
30003cfc:	e1a02083 	lsl	r2, r3, #1
30003d00:	e51b3010 	ldr	r3, [fp, #-16]
30003d04:	e0823003 	add	r3, r2, r3
30003d08:	e50b3008 	str	r3, [fp, #-8]
30003d0c:	e51b3008 	ldr	r3, [fp, #-8]
30003d10:	e1d330b0 	ldrh	r3, [r3]
30003d14:	e1a03803 	lsl	r3, r3, #16
30003d18:	e1a03823 	lsr	r3, r3, #16
30003d1c:	e1a00003 	mov	r0, r3
30003d20:	e28bd000 	add	sp, fp, #0	; 0x0
30003d24:	e8bd0800 	pop	{fp}
30003d28:	e12fff1e 	bx	lr

30003d2c <nor_dat>:
30003d2c:	e92d4800 	push	{fp, lr}
30003d30:	e28db004 	add	fp, sp, #4	; 0x4
30003d34:	e24dd008 	sub	sp, sp, #8	; 0x8
30003d38:	e50b0008 	str	r0, [fp, #-8]
30003d3c:	e3a00000 	mov	r0, #0	; 0x0
30003d40:	e51b1008 	ldr	r1, [fp, #-8]
30003d44:	ebffffe6 	bl	30003ce4 <nor_read_word>
30003d48:	e1a03000 	mov	r3, r0
30003d4c:	e1a00003 	mov	r0, r3
30003d50:	e24bd004 	sub	sp, fp, #4	; 0x4
30003d54:	e8bd4800 	pop	{fp, lr}
30003d58:	e12fff1e 	bx	lr

30003d5c <wait_ready>:
30003d5c:	e92d4800 	push	{fp, lr}
30003d60:	e28db004 	add	fp, sp, #4	; 0x4
30003d64:	e24dd010 	sub	sp, sp, #16	; 0x10
30003d68:	e50b0010 	str	r0, [fp, #-16]
30003d6c:	e51b3010 	ldr	r3, [fp, #-16]
30003d70:	e1a030a3 	lsr	r3, r3, #1
30003d74:	e1a00003 	mov	r0, r3
30003d78:	ebffffeb 	bl	30003d2c <nor_dat>
30003d7c:	e1a03000 	mov	r3, r0
30003d80:	e50b3008 	str	r3, [fp, #-8]
30003d84:	e51b3010 	ldr	r3, [fp, #-16]
30003d88:	e1a030a3 	lsr	r3, r3, #1
30003d8c:	e1a00003 	mov	r0, r3
30003d90:	ebffffe5 	bl	30003d2c <nor_dat>
30003d94:	e1a03000 	mov	r3, r0
30003d98:	e50b300c 	str	r3, [fp, #-12]
30003d9c:	ea000007 	b	30003dc0 <wait_ready+0x64>
30003da0:	e51b300c 	ldr	r3, [fp, #-12]
30003da4:	e50b3008 	str	r3, [fp, #-8]
30003da8:	e51b3010 	ldr	r3, [fp, #-16]
30003dac:	e1a030a3 	lsr	r3, r3, #1
30003db0:	e1a00003 	mov	r0, r3
30003db4:	ebffffdc 	bl	30003d2c <nor_dat>
30003db8:	e1a03000 	mov	r3, r0
30003dbc:	e50b300c 	str	r3, [fp, #-12]
30003dc0:	e51b200c 	ldr	r2, [fp, #-12]
30003dc4:	e51b3008 	ldr	r3, [fp, #-8]
30003dc8:	e0223003 	eor	r3, r2, r3
30003dcc:	e2033040 	and	r3, r3, #64	; 0x40
30003dd0:	e3530000 	cmp	r3, #0	; 0x0
30003dd4:	1afffff1 	bne	30003da0 <wait_ready+0x44>
30003dd8:	e24bd004 	sub	sp, fp, #4	; 0x4
30003ddc:	e8bd4800 	pop	{fp, lr}
30003de0:	e12fff1e 	bx	lr

30003de4 <do_scan_nor_flash>:
30003de4:	e92d4810 	push	{r4, fp, lr}
30003de8:	e28db008 	add	fp, sp, #8	; 0x8
30003dec:	e24dd044 	sub	sp, sp, #68	; 0x44
30003df0:	e3a00e55 	mov	r0, #1360	; 0x550
30003df4:	e2800005 	add	r0, r0, #5	; 0x5
30003df8:	e3a010aa 	mov	r1, #170	; 0xaa
30003dfc:	ebffffac 	bl	30003cb4 <nor_cmd>
30003e00:	e3a00faa 	mov	r0, #680	; 0x2a8
30003e04:	e2800002 	add	r0, r0, #2	; 0x2
30003e08:	e3a01055 	mov	r1, #85	; 0x55
30003e0c:	ebffffa8 	bl	30003cb4 <nor_cmd>
30003e10:	e3a00e55 	mov	r0, #1360	; 0x550
30003e14:	e2800005 	add	r0, r0, #5	; 0x5
30003e18:	e3a01090 	mov	r1, #144	; 0x90
30003e1c:	ebffffa4 	bl	30003cb4 <nor_cmd>
30003e20:	e3a00000 	mov	r0, #0	; 0x0
30003e24:	ebffffc0 	bl	30003d2c <nor_dat>
30003e28:	e1a03000 	mov	r3, r0
30003e2c:	e50b3014 	str	r3, [fp, #-20]
30003e30:	e3a00001 	mov	r0, #1	; 0x1
30003e34:	ebffffbc 	bl	30003d2c <nor_dat>
30003e38:	e1a03000 	mov	r3, r0
30003e3c:	e50b3010 	str	r3, [fp, #-16]
30003e40:	e3a00000 	mov	r0, #0	; 0x0
30003e44:	e3a010f0 	mov	r1, #240	; 0xf0
30003e48:	ebffff99 	bl	30003cb4 <nor_cmd>
30003e4c:	e3a00055 	mov	r0, #85	; 0x55
30003e50:	e3a01098 	mov	r1, #152	; 0x98
30003e54:	ebffff96 	bl	30003cb4 <nor_cmd>
30003e58:	e3a00010 	mov	r0, #16	; 0x10
30003e5c:	ebffffb2 	bl	30003d2c <nor_dat>
30003e60:	e1a03000 	mov	r3, r0
30003e64:	e20330ff 	and	r3, r3, #255	; 0xff
30003e68:	e54b303c 	strb	r3, [fp, #-60]
30003e6c:	e3a00011 	mov	r0, #17	; 0x11
30003e70:	ebffffad 	bl	30003d2c <nor_dat>
30003e74:	e1a03000 	mov	r3, r0
30003e78:	e20330ff 	and	r3, r3, #255	; 0xff
30003e7c:	e54b303b 	strb	r3, [fp, #-59]
30003e80:	e3a00012 	mov	r0, #18	; 0x12
30003e84:	ebffffa8 	bl	30003d2c <nor_dat>
30003e88:	e1a03000 	mov	r3, r0
30003e8c:	e20330ff 	and	r3, r3, #255	; 0xff
30003e90:	e54b303a 	strb	r3, [fp, #-58]
30003e94:	e3a03000 	mov	r3, #0	; 0x0
30003e98:	e54b3039 	strb	r3, [fp, #-57]
30003e9c:	e24b303c 	sub	r3, fp, #60	; 0x3c
30003ea0:	e59f01cc 	ldr	r0, [pc, #460]	; 30004074 <do_scan_nor_flash+0x290>
30003ea4:	e1a01003 	mov	r1, r3
30003ea8:	ebfff686 	bl	300018c8 <printf>
30003eac:	e3a00027 	mov	r0, #39	; 0x27
30003eb0:	ebffff9d 	bl	30003d2c <nor_dat>
30003eb4:	e1a03000 	mov	r3, r0
30003eb8:	e1a02003 	mov	r2, r3
30003ebc:	e3a03001 	mov	r3, #1	; 0x1
30003ec0:	e1a03213 	lsl	r3, r3, r2
30003ec4:	e50b3038 	str	r3, [fp, #-56]
30003ec8:	e51b3038 	ldr	r3, [fp, #-56]
30003ecc:	e1a03a23 	lsr	r3, r3, #20
30003ed0:	e58d3000 	str	r3, [sp]
30003ed4:	e59f019c 	ldr	r0, [pc, #412]	; 30004078 <do_scan_nor_flash+0x294>
30003ed8:	e51b1014 	ldr	r1, [fp, #-20]
30003edc:	e51b2010 	ldr	r2, [fp, #-16]
30003ee0:	e51b3038 	ldr	r3, [fp, #-56]
30003ee4:	ebfff677 	bl	300018c8 <printf>
30003ee8:	e3a0002c 	mov	r0, #44	; 0x2c
30003eec:	ebffff8e 	bl	30003d2c <nor_dat>
30003ef0:	e1a03000 	mov	r3, r0
30003ef4:	e50b3034 	str	r3, [fp, #-52]
30003ef8:	e3a0302d 	mov	r3, #45	; 0x2d
30003efc:	e50b302c 	str	r3, [fp, #-44]
30003f00:	e3a03000 	mov	r3, #0	; 0x0
30003f04:	e50b3028 	str	r3, [fp, #-40]
30003f08:	e59f016c 	ldr	r0, [pc, #364]	; 3000407c <do_scan_nor_flash+0x298>
30003f0c:	ebfff66d 	bl	300018c8 <printf>
30003f10:	e3a03000 	mov	r3, #0	; 0x0
30003f14:	e50b3018 	str	r3, [fp, #-24]
30003f18:	e3a03000 	mov	r3, #0	; 0x0
30003f1c:	e50b3030 	str	r3, [fp, #-48]
30003f20:	ea000047 	b	30004044 <do_scan_nor_flash+0x260>
30003f24:	e51b302c 	ldr	r3, [fp, #-44]
30003f28:	e1a00003 	mov	r0, r3
30003f2c:	ebffff7e 	bl	30003d2c <nor_dat>
30003f30:	e1a04000 	mov	r4, r0
30003f34:	e51b302c 	ldr	r3, [fp, #-44]
30003f38:	e2833001 	add	r3, r3, #1	; 0x1
30003f3c:	e1a00003 	mov	r0, r3
30003f40:	ebffff79 	bl	30003d2c <nor_dat>
30003f44:	e1a03000 	mov	r3, r0
30003f48:	e1a03403 	lsl	r3, r3, #8
30003f4c:	e0843003 	add	r3, r4, r3
30003f50:	e2833001 	add	r3, r3, #1	; 0x1
30003f54:	e50b3024 	str	r3, [fp, #-36]
30003f58:	e51b302c 	ldr	r3, [fp, #-44]
30003f5c:	e2833002 	add	r3, r3, #2	; 0x2
30003f60:	e1a00003 	mov	r0, r3
30003f64:	ebffff70 	bl	30003d2c <nor_dat>
30003f68:	e1a04000 	mov	r4, r0
30003f6c:	e51b302c 	ldr	r3, [fp, #-44]
30003f70:	e2833003 	add	r3, r3, #3	; 0x3
30003f74:	e1a00003 	mov	r0, r3
30003f78:	ebffff6b 	bl	30003d2c <nor_dat>
30003f7c:	e1a03000 	mov	r3, r0
30003f80:	e1a03403 	lsl	r3, r3, #8
30003f84:	e0843003 	add	r3, r4, r3
30003f88:	e1a03403 	lsl	r3, r3, #8
30003f8c:	e50b3020 	str	r3, [fp, #-32]
30003f90:	e51b302c 	ldr	r3, [fp, #-44]
30003f94:	e2833004 	add	r3, r3, #4	; 0x4
30003f98:	e50b302c 	str	r3, [fp, #-44]
30003f9c:	e3a03000 	mov	r3, #0	; 0x0
30003fa0:	e50b301c 	str	r3, [fp, #-28]
30003fa4:	ea00001f 	b	30004028 <do_scan_nor_flash+0x244>
30003fa8:	e51b0028 	ldr	r0, [fp, #-40]
30003fac:	eb00030a 	bl	30004bdc <printfhex>
30003fb0:	e3a00020 	mov	r0, #32	; 0x20
30003fb4:	ebfffe1c 	bl	3000382c <putchar>
30003fb8:	e51b3018 	ldr	r3, [fp, #-24]
30003fbc:	e2833001 	add	r3, r3, #1	; 0x1
30003fc0:	e50b3018 	str	r3, [fp, #-24]
30003fc4:	e51b2028 	ldr	r2, [fp, #-40]
30003fc8:	e51b3020 	ldr	r3, [fp, #-32]
30003fcc:	e0823003 	add	r3, r2, r3
30003fd0:	e50b3028 	str	r3, [fp, #-40]
30003fd4:	e51b1018 	ldr	r1, [fp, #-24]
30003fd8:	e59f30a0 	ldr	r3, [pc, #160]	; 30004080 <do_scan_nor_flash+0x29c>
30003fdc:	e0c32391 	smull	r2, r3, r1, r3
30003fe0:	e1a020c3 	asr	r2, r3, #1
30003fe4:	e1a03fc1 	asr	r3, r1, #31
30003fe8:	e0633002 	rsb	r3, r3, r2
30003fec:	e50b3040 	str	r3, [fp, #-64]
30003ff0:	e51b3040 	ldr	r3, [fp, #-64]
30003ff4:	e1a03103 	lsl	r3, r3, #2
30003ff8:	e51b2040 	ldr	r2, [fp, #-64]
30003ffc:	e0833002 	add	r3, r3, r2
30004000:	e0633001 	rsb	r3, r3, r1
30004004:	e50b3040 	str	r3, [fp, #-64]
30004008:	e51b3040 	ldr	r3, [fp, #-64]
3000400c:	e3530000 	cmp	r3, #0	; 0x0
30004010:	1a000001 	bne	3000401c <do_scan_nor_flash+0x238>
30004014:	e59f0068 	ldr	r0, [pc, #104]	; 30004084 <do_scan_nor_flash+0x2a0>
30004018:	ebfff62a 	bl	300018c8 <printf>
3000401c:	e51b301c 	ldr	r3, [fp, #-28]
30004020:	e2833001 	add	r3, r3, #1	; 0x1
30004024:	e50b301c 	str	r3, [fp, #-28]
30004028:	e51b201c 	ldr	r2, [fp, #-28]
3000402c:	e51b3024 	ldr	r3, [fp, #-36]
30004030:	e1520003 	cmp	r2, r3
30004034:	baffffdb 	blt	30003fa8 <do_scan_nor_flash+0x1c4>
30004038:	e51b3030 	ldr	r3, [fp, #-48]
3000403c:	e2833001 	add	r3, r3, #1	; 0x1
30004040:	e50b3030 	str	r3, [fp, #-48]
30004044:	e51b2030 	ldr	r2, [fp, #-48]
30004048:	e51b3034 	ldr	r3, [fp, #-52]
3000404c:	e1520003 	cmp	r2, r3
30004050:	baffffb3 	blt	30003f24 <do_scan_nor_flash+0x140>
30004054:	e59f0028 	ldr	r0, [pc, #40]	; 30004084 <do_scan_nor_flash+0x2a0>
30004058:	ebfff61a 	bl	300018c8 <printf>
3000405c:	e3a00000 	mov	r0, #0	; 0x0
30004060:	e3a010f0 	mov	r1, #240	; 0xf0
30004064:	ebffff12 	bl	30003cb4 <nor_cmd>
30004068:	e24bd008 	sub	sp, fp, #8	; 0x8
3000406c:	e8bd4810 	pop	{r4, fp, lr}
30004070:	e12fff1e 	bx	lr
30004074:	3000643c 	.word	0x3000643c
30004078:	30006448 	.word	0x30006448
3000407c:	30006484 	.word	0x30006484
30004080:	66666667 	.word	0x66666667
30004084:	300064a4 	.word	0x300064a4

30004088 <do_erase_nor_flash>:
30004088:	e92d4800 	push	{fp, lr}
3000408c:	e28db004 	add	fp, sp, #4	; 0x4
30004090:	e24dd008 	sub	sp, sp, #8	; 0x8
30004094:	e59f008c 	ldr	r0, [pc, #140]	; 30004128 <do_erase_nor_flash+0xa0>
30004098:	ebfff60a 	bl	300018c8 <printf>
3000409c:	ebfff499 	bl	30001308 <get_uint>
300040a0:	e1a03000 	mov	r3, r0
300040a4:	e50b3008 	str	r3, [fp, #-8]
300040a8:	e59f007c 	ldr	r0, [pc, #124]	; 3000412c <do_erase_nor_flash+0xa4>
300040ac:	ebfff605 	bl	300018c8 <printf>
300040b0:	e3a00e55 	mov	r0, #1360	; 0x550
300040b4:	e2800005 	add	r0, r0, #5	; 0x5
300040b8:	e3a010aa 	mov	r1, #170	; 0xaa
300040bc:	ebfffefc 	bl	30003cb4 <nor_cmd>
300040c0:	e3a00faa 	mov	r0, #680	; 0x2a8
300040c4:	e2800002 	add	r0, r0, #2	; 0x2
300040c8:	e3a01055 	mov	r1, #85	; 0x55
300040cc:	ebfffef8 	bl	30003cb4 <nor_cmd>
300040d0:	e3a00e55 	mov	r0, #1360	; 0x550
300040d4:	e2800005 	add	r0, r0, #5	; 0x5
300040d8:	e3a01080 	mov	r1, #128	; 0x80
300040dc:	ebfffef4 	bl	30003cb4 <nor_cmd>
300040e0:	e3a00e55 	mov	r0, #1360	; 0x550
300040e4:	e2800005 	add	r0, r0, #5	; 0x5
300040e8:	e3a010aa 	mov	r1, #170	; 0xaa
300040ec:	ebfffef0 	bl	30003cb4 <nor_cmd>
300040f0:	e3a00faa 	mov	r0, #680	; 0x2a8
300040f4:	e2800002 	add	r0, r0, #2	; 0x2
300040f8:	e3a01055 	mov	r1, #85	; 0x55
300040fc:	ebfffeec 	bl	30003cb4 <nor_cmd>
30004100:	e51b3008 	ldr	r3, [fp, #-8]
30004104:	e1a030a3 	lsr	r3, r3, #1
30004108:	e1a00003 	mov	r0, r3
3000410c:	e3a01030 	mov	r1, #48	; 0x30
30004110:	ebfffee7 	bl	30003cb4 <nor_cmd>
30004114:	e51b0008 	ldr	r0, [fp, #-8]
30004118:	ebffff0f 	bl	30003d5c <wait_ready>
3000411c:	e24bd004 	sub	sp, fp, #4	; 0x4
30004120:	e8bd4800 	pop	{fp, lr}
30004124:	e12fff1e 	bx	lr
30004128:	300064a8 	.word	0x300064a8
3000412c:	300064d0 	.word	0x300064d0

30004130 <do_write_nor_flash>:
30004130:	e92d4800 	push	{fp, lr}
30004134:	e28db004 	add	fp, sp, #4	; 0x4
30004138:	e24dd078 	sub	sp, sp, #120	; 0x78
3000413c:	e59f01a0 	ldr	r0, [pc, #416]	; 300042e4 <do_write_nor_flash+0x1b4>
30004140:	ebfff5e0 	bl	300018c8 <printf>
30004144:	ebfff46f 	bl	30001308 <get_uint>
30004148:	e1a03000 	mov	r3, r0
3000414c:	e50b3014 	str	r3, [fp, #-20]
30004150:	e59f0190 	ldr	r0, [pc, #400]	; 300042e8 <do_write_nor_flash+0x1b8>
30004154:	ebfff5db 	bl	300018c8 <printf>
30004158:	e24b3078 	sub	r3, fp, #120	; 0x78
3000415c:	e1a00003 	mov	r0, r3
30004160:	ebfff428 	bl	30001208 <gets>
30004164:	e59f0180 	ldr	r0, [pc, #384]	; 300042ec <do_write_nor_flash+0x1bc>
30004168:	ebfff5d6 	bl	300018c8 <printf>
3000416c:	e3a03000 	mov	r3, #0	; 0x0
30004170:	e50b3010 	str	r3, [fp, #-16]
30004174:	e3a03001 	mov	r3, #1	; 0x1
30004178:	e50b300c 	str	r3, [fp, #-12]
3000417c:	ea00002b 	b	30004230 <do_write_nor_flash+0x100>
30004180:	e51b3010 	ldr	r3, [fp, #-16]
30004184:	e3e02073 	mvn	r2, #115	; 0x73
30004188:	e24b0004 	sub	r0, fp, #4	; 0x4
3000418c:	e0803003 	add	r3, r0, r3
30004190:	e0833002 	add	r3, r3, r2
30004194:	e5d33000 	ldrb	r3, [r3]
30004198:	e1a01003 	mov	r1, r3
3000419c:	e51b300c 	ldr	r3, [fp, #-12]
300041a0:	e3e02073 	mvn	r2, #115	; 0x73
300041a4:	e24b0004 	sub	r0, fp, #4	; 0x4
300041a8:	e0803003 	add	r3, r0, r3
300041ac:	e0833002 	add	r3, r3, r2
300041b0:	e5d33000 	ldrb	r3, [r3]
300041b4:	e1a03403 	lsl	r3, r3, #8
300041b8:	e0813003 	add	r3, r1, r3
300041bc:	e50b3008 	str	r3, [fp, #-8]
300041c0:	e3a00e55 	mov	r0, #1360	; 0x550
300041c4:	e2800005 	add	r0, r0, #5	; 0x5
300041c8:	e3a010aa 	mov	r1, #170	; 0xaa
300041cc:	ebfffeb8 	bl	30003cb4 <nor_cmd>
300041d0:	e3a00faa 	mov	r0, #680	; 0x2a8
300041d4:	e2800002 	add	r0, r0, #2	; 0x2
300041d8:	e3a01055 	mov	r1, #85	; 0x55
300041dc:	ebfffeb4 	bl	30003cb4 <nor_cmd>
300041e0:	e3a00e55 	mov	r0, #1360	; 0x550
300041e4:	e2800005 	add	r0, r0, #5	; 0x5
300041e8:	e3a010a0 	mov	r1, #160	; 0xa0
300041ec:	ebfffeb0 	bl	30003cb4 <nor_cmd>
300041f0:	e51b3014 	ldr	r3, [fp, #-20]
300041f4:	e1a030a3 	lsr	r3, r3, #1
300041f8:	e1a00003 	mov	r0, r3
300041fc:	e51b1008 	ldr	r1, [fp, #-8]
30004200:	ebfffeab 	bl	30003cb4 <nor_cmd>
30004204:	e51b0014 	ldr	r0, [fp, #-20]
30004208:	ebfffed3 	bl	30003d5c <wait_ready>
3000420c:	e51b3010 	ldr	r3, [fp, #-16]
30004210:	e2833002 	add	r3, r3, #2	; 0x2
30004214:	e50b3010 	str	r3, [fp, #-16]
30004218:	e51b300c 	ldr	r3, [fp, #-12]
3000421c:	e2833002 	add	r3, r3, #2	; 0x2
30004220:	e50b300c 	str	r3, [fp, #-12]
30004224:	e51b3014 	ldr	r3, [fp, #-20]
30004228:	e2833002 	add	r3, r3, #2	; 0x2
3000422c:	e50b3014 	str	r3, [fp, #-20]
30004230:	e51b3010 	ldr	r3, [fp, #-16]
30004234:	e3e02073 	mvn	r2, #115	; 0x73
30004238:	e24b1004 	sub	r1, fp, #4	; 0x4
3000423c:	e0813003 	add	r3, r1, r3
30004240:	e0833002 	add	r3, r3, r2
30004244:	e5d33000 	ldrb	r3, [r3]
30004248:	e3530000 	cmp	r3, #0	; 0x0
3000424c:	0a000007 	beq	30004270 <do_write_nor_flash+0x140>
30004250:	e51b300c 	ldr	r3, [fp, #-12]
30004254:	e3e02073 	mvn	r2, #115	; 0x73
30004258:	e24b0004 	sub	r0, fp, #4	; 0x4
3000425c:	e0803003 	add	r3, r0, r3
30004260:	e0833002 	add	r3, r3, r2
30004264:	e5d33000 	ldrb	r3, [r3]
30004268:	e3530000 	cmp	r3, #0	; 0x0
3000426c:	1affffc3 	bne	30004180 <do_write_nor_flash+0x50>
30004270:	e51b3010 	ldr	r3, [fp, #-16]
30004274:	e3e02073 	mvn	r2, #115	; 0x73
30004278:	e24b1004 	sub	r1, fp, #4	; 0x4
3000427c:	e0813003 	add	r3, r1, r3
30004280:	e0833002 	add	r3, r3, r2
30004284:	e5d33000 	ldrb	r3, [r3]
30004288:	e50b3008 	str	r3, [fp, #-8]
3000428c:	e3a00e55 	mov	r0, #1360	; 0x550
30004290:	e2800005 	add	r0, r0, #5	; 0x5
30004294:	e3a010aa 	mov	r1, #170	; 0xaa
30004298:	ebfffe85 	bl	30003cb4 <nor_cmd>
3000429c:	e3a00faa 	mov	r0, #680	; 0x2a8
300042a0:	e2800002 	add	r0, r0, #2	; 0x2
300042a4:	e3a01055 	mov	r1, #85	; 0x55
300042a8:	ebfffe81 	bl	30003cb4 <nor_cmd>
300042ac:	e3a00e55 	mov	r0, #1360	; 0x550
300042b0:	e2800005 	add	r0, r0, #5	; 0x5
300042b4:	e3a010a0 	mov	r1, #160	; 0xa0
300042b8:	ebfffe7d 	bl	30003cb4 <nor_cmd>
300042bc:	e51b3014 	ldr	r3, [fp, #-20]
300042c0:	e1a030a3 	lsr	r3, r3, #1
300042c4:	e1a00003 	mov	r0, r3
300042c8:	e51b1008 	ldr	r1, [fp, #-8]
300042cc:	ebfffe78 	bl	30003cb4 <nor_cmd>
300042d0:	e51b0014 	ldr	r0, [fp, #-20]
300042d4:	ebfffea0 	bl	30003d5c <wait_ready>
300042d8:	e24bd004 	sub	sp, fp, #4	; 0x4
300042dc:	e8bd4800 	pop	{fp, lr}
300042e0:	e12fff1e 	bx	lr
300042e4:	300064e0 	.word	0x300064e0
300042e8:	30006508 	.word	0x30006508
300042ec:	30006524 	.word	0x30006524

300042f0 <do_read_nor_flash>:
300042f0:	e92d4800 	push	{fp, lr}
300042f4:	e28db004 	add	fp, sp, #4	; 0x4
300042f8:	e24dd028 	sub	sp, sp, #40	; 0x28
300042fc:	e59f0154 	ldr	r0, [pc, #340]	; 30004458 <do_read_nor_flash+0x168>
30004300:	ebfff570 	bl	300018c8 <printf>
30004304:	ebfff3ff 	bl	30001308 <get_uint>
30004308:	e1a03000 	mov	r3, r0
3000430c:	e50b3018 	str	r3, [fp, #-24]
30004310:	e51b3018 	ldr	r3, [fp, #-24]
30004314:	e50b3014 	str	r3, [fp, #-20]
30004318:	e59f013c 	ldr	r0, [pc, #316]	; 3000445c <do_read_nor_flash+0x16c>
3000431c:	ebfff569 	bl	300018c8 <printf>
30004320:	e3a03000 	mov	r3, #0	; 0x0
30004324:	e50b3010 	str	r3, [fp, #-16]
30004328:	ea000044 	b	30004440 <do_read_nor_flash+0x150>
3000432c:	e3a03000 	mov	r3, #0	; 0x0
30004330:	e50b300c 	str	r3, [fp, #-12]
30004334:	ea000013 	b	30004388 <do_read_nor_flash+0x98>
30004338:	e51b3014 	ldr	r3, [fp, #-20]
3000433c:	e5d33000 	ldrb	r3, [r3]
30004340:	e54b3005 	strb	r3, [fp, #-5]
30004344:	e51b3014 	ldr	r3, [fp, #-20]
30004348:	e2833001 	add	r3, r3, #1	; 0x1
3000434c:	e50b3014 	str	r3, [fp, #-20]
30004350:	e51b300c 	ldr	r3, [fp, #-12]
30004354:	e3e02023 	mvn	r2, #35	; 0x23
30004358:	e24b1004 	sub	r1, fp, #4	; 0x4
3000435c:	e0813003 	add	r3, r1, r3
30004360:	e0832002 	add	r2, r3, r2
30004364:	e55b3005 	ldrb	r3, [fp, #-5]
30004368:	e5c23000 	strb	r3, [r2]
3000436c:	e55b3005 	ldrb	r3, [fp, #-5]
30004370:	e59f00e8 	ldr	r0, [pc, #232]	; 30004460 <do_read_nor_flash+0x170>
30004374:	e1a01003 	mov	r1, r3
30004378:	ebfff552 	bl	300018c8 <printf>
3000437c:	e51b300c 	ldr	r3, [fp, #-12]
30004380:	e2833001 	add	r3, r3, #1	; 0x1
30004384:	e50b300c 	str	r3, [fp, #-12]
30004388:	e51b300c 	ldr	r3, [fp, #-12]
3000438c:	e353000f 	cmp	r3, #15	; 0xf
30004390:	daffffe8 	ble	30004338 <do_read_nor_flash+0x48>
30004394:	e59f00c8 	ldr	r0, [pc, #200]	; 30004464 <do_read_nor_flash+0x174>
30004398:	ebfff54a 	bl	300018c8 <printf>
3000439c:	e3a03000 	mov	r3, #0	; 0x0
300043a0:	e50b300c 	str	r3, [fp, #-12]
300043a4:	ea00001d 	b	30004420 <do_read_nor_flash+0x130>
300043a8:	e51b300c 	ldr	r3, [fp, #-12]
300043ac:	e3e02023 	mvn	r2, #35	; 0x23
300043b0:	e24b1004 	sub	r1, fp, #4	; 0x4
300043b4:	e0813003 	add	r3, r1, r3
300043b8:	e0833002 	add	r3, r3, r2
300043bc:	e5d33000 	ldrb	r3, [r3]
300043c0:	e353001f 	cmp	r3, #31	; 0x1f
300043c4:	9a000007 	bls	300043e8 <do_read_nor_flash+0xf8>
300043c8:	e51b300c 	ldr	r3, [fp, #-12]
300043cc:	e3e02023 	mvn	r2, #35	; 0x23
300043d0:	e24b1004 	sub	r1, fp, #4	; 0x4
300043d4:	e0813003 	add	r3, r1, r3
300043d8:	e0833002 	add	r3, r3, r2
300043dc:	e5d33000 	ldrb	r3, [r3]
300043e0:	e353007e 	cmp	r3, #126	; 0x7e
300043e4:	9a000002 	bls	300043f4 <do_read_nor_flash+0x104>
300043e8:	e3a0002e 	mov	r0, #46	; 0x2e
300043ec:	ebfffd0e 	bl	3000382c <putchar>
300043f0:	ea000007 	b	30004414 <do_read_nor_flash+0x124>
300043f4:	e51b300c 	ldr	r3, [fp, #-12]
300043f8:	e3e02023 	mvn	r2, #35	; 0x23
300043fc:	e24b1004 	sub	r1, fp, #4	; 0x4
30004400:	e0813003 	add	r3, r1, r3
30004404:	e0833002 	add	r3, r3, r2
30004408:	e5d33000 	ldrb	r3, [r3]
3000440c:	e1a00003 	mov	r0, r3
30004410:	ebfffd05 	bl	3000382c <putchar>
30004414:	e51b300c 	ldr	r3, [fp, #-12]
30004418:	e2833001 	add	r3, r3, #1	; 0x1
3000441c:	e50b300c 	str	r3, [fp, #-12]
30004420:	e51b300c 	ldr	r3, [fp, #-12]
30004424:	e353000f 	cmp	r3, #15	; 0xf
30004428:	daffffde 	ble	300043a8 <do_read_nor_flash+0xb8>
3000442c:	e59f0034 	ldr	r0, [pc, #52]	; 30004468 <do_read_nor_flash+0x178>
30004430:	ebfff524 	bl	300018c8 <printf>
30004434:	e51b3010 	ldr	r3, [fp, #-16]
30004438:	e2833001 	add	r3, r3, #1	; 0x1
3000443c:	e50b3010 	str	r3, [fp, #-16]
30004440:	e51b3010 	ldr	r3, [fp, #-16]
30004444:	e3530003 	cmp	r3, #3	; 0x3
30004448:	daffffb7 	ble	3000432c <do_read_nor_flash+0x3c>
3000444c:	e24bd004 	sub	sp, fp, #4	; 0x4
30004450:	e8bd4800 	pop	{fp, lr}
30004454:	e12fff1e 	bx	lr
30004458:	30006534 	.word	0x30006534
3000445c:	30006550 	.word	0x30006550
30004460:	3000655c 	.word	0x3000655c
30004464:	30006564 	.word	0x30006564
30004468:	300064a4 	.word	0x300064a4

3000446c <nor_flash_test>:
3000446c:	e92d4800 	push	{fp, lr}
30004470:	e28db004 	add	fp, sp, #4	; 0x4
30004474:	e24dd008 	sub	sp, sp, #8	; 0x8
30004478:	e59f0150 	ldr	r0, [pc, #336]	; 300045d0 <nor_flash_test+0x164>
3000447c:	ebfff511 	bl	300018c8 <printf>
30004480:	e59f014c 	ldr	r0, [pc, #332]	; 300045d4 <nor_flash_test+0x168>
30004484:	ebfff50f 	bl	300018c8 <printf>
30004488:	e59f0148 	ldr	r0, [pc, #328]	; 300045d8 <nor_flash_test+0x16c>
3000448c:	ebfff50d 	bl	300018c8 <printf>
30004490:	e59f0144 	ldr	r0, [pc, #324]	; 300045dc <nor_flash_test+0x170>
30004494:	ebfff50b 	bl	300018c8 <printf>
30004498:	e59f0140 	ldr	r0, [pc, #320]	; 300045e0 <nor_flash_test+0x174>
3000449c:	ebfff509 	bl	300018c8 <printf>
300044a0:	e59f013c 	ldr	r0, [pc, #316]	; 300045e4 <nor_flash_test+0x178>
300044a4:	ebfff507 	bl	300018c8 <printf>
300044a8:	ebfffcff 	bl	300038ac <getchar>
300044ac:	e1a03000 	mov	r3, r0
300044b0:	e54b3005 	strb	r3, [fp, #-5]
300044b4:	e55b3005 	ldrb	r3, [fp, #-5]
300044b8:	e59f0128 	ldr	r0, [pc, #296]	; 300045e8 <nor_flash_test+0x17c>
300044bc:	e1a01003 	mov	r1, r3
300044c0:	ebfff500 	bl	300018c8 <printf>
300044c4:	e55b3005 	ldrb	r3, [fp, #-5]
300044c8:	e2433045 	sub	r3, r3, #69	; 0x45
300044cc:	e3530032 	cmp	r3, #50	; 0x32
300044d0:	979ff103 	ldrls	pc, [pc, r3, lsl #2]
300044d4:	eaffffe7 	b	30004478 <nor_flash_test+0xc>
300044d8:	300045ac 	.word	0x300045ac
300044dc:	30004478 	.word	0x30004478
300044e0:	30004478 	.word	0x30004478
300044e4:	30004478 	.word	0x30004478
300044e8:	30004478 	.word	0x30004478
300044ec:	30004478 	.word	0x30004478
300044f0:	30004478 	.word	0x30004478
300044f4:	30004478 	.word	0x30004478
300044f8:	30004478 	.word	0x30004478
300044fc:	30004478 	.word	0x30004478
30004500:	30004478 	.word	0x30004478
30004504:	30004478 	.word	0x30004478
30004508:	300045c4 	.word	0x300045c4
3000450c:	300045bc 	.word	0x300045bc
30004510:	300045a4 	.word	0x300045a4
30004514:	30004478 	.word	0x30004478
30004518:	30004478 	.word	0x30004478
3000451c:	30004478 	.word	0x30004478
30004520:	300045b4 	.word	0x300045b4
30004524:	30004478 	.word	0x30004478
30004528:	30004478 	.word	0x30004478
3000452c:	30004478 	.word	0x30004478
30004530:	30004478 	.word	0x30004478
30004534:	30004478 	.word	0x30004478
30004538:	30004478 	.word	0x30004478
3000453c:	30004478 	.word	0x30004478
30004540:	30004478 	.word	0x30004478
30004544:	30004478 	.word	0x30004478
30004548:	30004478 	.word	0x30004478
3000454c:	30004478 	.word	0x30004478
30004550:	30004478 	.word	0x30004478
30004554:	30004478 	.word	0x30004478
30004558:	300045ac 	.word	0x300045ac
3000455c:	30004478 	.word	0x30004478
30004560:	30004478 	.word	0x30004478
30004564:	30004478 	.word	0x30004478
30004568:	30004478 	.word	0x30004478
3000456c:	30004478 	.word	0x30004478
30004570:	30004478 	.word	0x30004478
30004574:	30004478 	.word	0x30004478
30004578:	30004478 	.word	0x30004478
3000457c:	30004478 	.word	0x30004478
30004580:	30004478 	.word	0x30004478
30004584:	30004478 	.word	0x30004478
30004588:	300045c4 	.word	0x300045c4
3000458c:	300045bc 	.word	0x300045bc
30004590:	300045a4 	.word	0x300045a4
30004594:	30004478 	.word	0x30004478
30004598:	30004478 	.word	0x30004478
3000459c:	30004478 	.word	0x30004478
300045a0:	300045b4 	.word	0x300045b4
300045a4:	ebfffe0e 	bl	30003de4 <do_scan_nor_flash>
300045a8:	eaffffb2 	b	30004478 <nor_flash_test+0xc>
300045ac:	ebfffeb5 	bl	30004088 <do_erase_nor_flash>
300045b0:	eaffffb0 	b	30004478 <nor_flash_test+0xc>
300045b4:	ebfffedd 	bl	30004130 <do_write_nor_flash>
300045b8:	eaffffae 	b	30004478 <nor_flash_test+0xc>
300045bc:	ebffff4b 	bl	300042f0 <do_read_nor_flash>
300045c0:	eaffffac 	b	30004478 <nor_flash_test+0xc>
300045c4:	e24bd004 	sub	sp, fp, #4	; 0x4
300045c8:	e8bd4800 	pop	{fp, lr}
300045cc:	e12fff1e 	bx	lr
300045d0:	3000656c 	.word	0x3000656c
300045d4:	30006584 	.word	0x30006584
300045d8:	3000659c 	.word	0x3000659c
300045dc:	300065b4 	.word	0x300065b4
300045e0:	300065cc 	.word	0x300065cc
300045e4:	300065d8 	.word	0x300065d8
300045e8:	300065ec 	.word	0x300065ec

300045ec <printException>:
300045ec:	e92d4800 	push	{fp, lr}
300045f0:	e28db004 	add	fp, sp, #4	; 0x4
300045f4:	e24dd008 	sub	sp, sp, #8	; 0x8
300045f8:	e50b0008 	str	r0, [fp, #-8]
300045fc:	e50b100c 	str	r1, [fp, #-12]
30004600:	e59f0014 	ldr	r0, [pc, #20]	; 3000461c <printException+0x30>
30004604:	e51b1008 	ldr	r1, [fp, #-8]
30004608:	e51b200c 	ldr	r2, [fp, #-12]
3000460c:	ebfff4ad 	bl	300018c8 <printf>
30004610:	e24bd004 	sub	sp, fp, #4	; 0x4
30004614:	e8bd4800 	pop	{fp, lr}
30004618:	e12fff1e 	bx	lr
3000461c:	300065f4 	.word	0x300065f4

30004620 <printSWIVal>:
30004620:	e92d4800 	push	{fp, lr}
30004624:	e28db004 	add	fp, sp, #4	; 0x4
30004628:	e24dd010 	sub	sp, sp, #16	; 0x10
3000462c:	e50b0010 	str	r0, [fp, #-16]
30004630:	e51b3010 	ldr	r3, [fp, #-16]
30004634:	e5933000 	ldr	r3, [r3]
30004638:	e3c334ff 	bic	r3, r3, #-16777216	; 0xff000000
3000463c:	e50b3008 	str	r3, [fp, #-8]
30004640:	e51b3010 	ldr	r3, [fp, #-16]
30004644:	e51b2010 	ldr	r2, [fp, #-16]
30004648:	e59f001c 	ldr	r0, [pc, #28]	; 3000466c <printSWIVal+0x4c>
3000464c:	e1a01003 	mov	r1, r3
30004650:	ebfff49c 	bl	300018c8 <printf>
30004654:	e59f0014 	ldr	r0, [pc, #20]	; 30004670 <printSWIVal+0x50>
30004658:	e51b1008 	ldr	r1, [fp, #-8]
3000465c:	ebfff499 	bl	300018c8 <printf>
30004660:	e24bd004 	sub	sp, fp, #4	; 0x4
30004664:	e8bd4800 	pop	{fp, lr}
30004668:	e12fff1e 	bx	lr
3000466c:	30006608 	.word	0x30006608
30004670:	3000661c 	.word	0x3000661c

30004674 <int_ADC_handle_irq>:
30004674:	e52db004 	push	{fp}		; (str fp, [sp, #-4]!)
30004678:	e28db000 	add	fp, sp, #0	; 0x0
3000467c:	e28bd000 	add	sp, fp, #0	; 0x0
30004680:	e8bd0800 	pop	{fp}
30004684:	e12fff1e 	bx	lr

30004688 <int_rtc_handle_irq>:
30004688:	e52db004 	push	{fp}		; (str fp, [sp, #-4]!)
3000468c:	e28db000 	add	fp, sp, #0	; 0x0
30004690:	e28bd000 	add	sp, fp, #0	; 0x0
30004694:	e8bd0800 	pop	{fp}
30004698:	e12fff1e 	bx	lr

3000469c <int_spi1_handle_irq>:
3000469c:	e52db004 	push	{fp}		; (str fp, [sp, #-4]!)
300046a0:	e28db000 	add	fp, sp, #0	; 0x0
300046a4:	e28bd000 	add	sp, fp, #0	; 0x0
300046a8:	e8bd0800 	pop	{fp}
300046ac:	e12fff1e 	bx	lr

300046b0 <int_uart0_handle_irq>:
300046b0:	e52db004 	push	{fp}		; (str fp, [sp, #-4]!)
300046b4:	e28db000 	add	fp, sp, #0	; 0x0
300046b8:	e28bd000 	add	sp, fp, #0	; 0x0
300046bc:	e8bd0800 	pop	{fp}
300046c0:	e12fff1e 	bx	lr

300046c4 <int_iic_handle_irq>:
300046c4:	e52db004 	push	{fp}		; (str fp, [sp, #-4]!)
300046c8:	e28db000 	add	fp, sp, #0	; 0x0
300046cc:	e28bd000 	add	sp, fp, #0	; 0x0
300046d0:	e8bd0800 	pop	{fp}
300046d4:	e12fff1e 	bx	lr

300046d8 <int_usbh_handle_irq>:
300046d8:	e52db004 	push	{fp}		; (str fp, [sp, #-4]!)
300046dc:	e28db000 	add	fp, sp, #0	; 0x0
300046e0:	e28bd000 	add	sp, fp, #0	; 0x0
300046e4:	e8bd0800 	pop	{fp}
300046e8:	e12fff1e 	bx	lr

300046ec <int_usbd_handle_irq>:
300046ec:	e52db004 	push	{fp}		; (str fp, [sp, #-4]!)
300046f0:	e28db000 	add	fp, sp, #0	; 0x0
300046f4:	e28bd000 	add	sp, fp, #0	; 0x0
300046f8:	e8bd0800 	pop	{fp}
300046fc:	e12fff1e 	bx	lr

30004700 <int_nfcon_handle_irq>:
30004700:	e52db004 	push	{fp}		; (str fp, [sp, #-4]!)
30004704:	e28db000 	add	fp, sp, #0	; 0x0
30004708:	e28bd000 	add	sp, fp, #0	; 0x0
3000470c:	e8bd0800 	pop	{fp}
30004710:	e12fff1e 	bx	lr

30004714 <int_uart1_handle_irq>:
30004714:	e52db004 	push	{fp}		; (str fp, [sp, #-4]!)
30004718:	e28db000 	add	fp, sp, #0	; 0x0
3000471c:	e28bd000 	add	sp, fp, #0	; 0x0
30004720:	e8bd0800 	pop	{fp}
30004724:	e12fff1e 	bx	lr

30004728 <int_spi0_handle_irq>:
30004728:	e52db004 	push	{fp}		; (str fp, [sp, #-4]!)
3000472c:	e28db000 	add	fp, sp, #0	; 0x0
30004730:	e28bd000 	add	sp, fp, #0	; 0x0
30004734:	e8bd0800 	pop	{fp}
30004738:	e12fff1e 	bx	lr

3000473c <int_sdi_handle_irq>:
3000473c:	e52db004 	push	{fp}		; (str fp, [sp, #-4]!)
30004740:	e28db000 	add	fp, sp, #0	; 0x0
30004744:	e28bd000 	add	sp, fp, #0	; 0x0
30004748:	e8bd0800 	pop	{fp}
3000474c:	e12fff1e 	bx	lr

30004750 <int_dma3_handle_irq>:
30004750:	e52db004 	push	{fp}		; (str fp, [sp, #-4]!)
30004754:	e28db000 	add	fp, sp, #0	; 0x0
30004758:	e28bd000 	add	sp, fp, #0	; 0x0
3000475c:	e8bd0800 	pop	{fp}
30004760:	e12fff1e 	bx	lr

30004764 <int_dma2_handle_irq>:
30004764:	e52db004 	push	{fp}		; (str fp, [sp, #-4]!)
30004768:	e28db000 	add	fp, sp, #0	; 0x0
3000476c:	e28bd000 	add	sp, fp, #0	; 0x0
30004770:	e8bd0800 	pop	{fp}
30004774:	e12fff1e 	bx	lr

30004778 <int_dma1_handle_irq>:
30004778:	e52db004 	push	{fp}		; (str fp, [sp, #-4]!)
3000477c:	e28db000 	add	fp, sp, #0	; 0x0
30004780:	e28bd000 	add	sp, fp, #0	; 0x0
30004784:	e8bd0800 	pop	{fp}
30004788:	e12fff1e 	bx	lr

3000478c <int_dma0_handle_irq>:
3000478c:	e52db004 	push	{fp}		; (str fp, [sp, #-4]!)
30004790:	e28db000 	add	fp, sp, #0	; 0x0
30004794:	e28bd000 	add	sp, fp, #0	; 0x0
30004798:	e8bd0800 	pop	{fp}
3000479c:	e12fff1e 	bx	lr

300047a0 <int_lcd_handle_irq>:
300047a0:	e52db004 	push	{fp}		; (str fp, [sp, #-4]!)
300047a4:	e28db000 	add	fp, sp, #0	; 0x0
300047a8:	e28bd000 	add	sp, fp, #0	; 0x0
300047ac:	e8bd0800 	pop	{fp}
300047b0:	e12fff1e 	bx	lr

300047b4 <int_uart2_handle_irq>:
300047b4:	e52db004 	push	{fp}		; (str fp, [sp, #-4]!)
300047b8:	e28db000 	add	fp, sp, #0	; 0x0
300047bc:	e28bd000 	add	sp, fp, #0	; 0x0
300047c0:	e8bd0800 	pop	{fp}
300047c4:	e12fff1e 	bx	lr

300047c8 <int_timer4_handle_irq>:
300047c8:	e52db004 	push	{fp}		; (str fp, [sp, #-4]!)
300047cc:	e28db000 	add	fp, sp, #0	; 0x0
300047d0:	e28bd000 	add	sp, fp, #0	; 0x0
300047d4:	e8bd0800 	pop	{fp}
300047d8:	e12fff1e 	bx	lr

300047dc <int_timer3_handle_irq>:
300047dc:	e52db004 	push	{fp}		; (str fp, [sp, #-4]!)
300047e0:	e28db000 	add	fp, sp, #0	; 0x0
300047e4:	e28bd000 	add	sp, fp, #0	; 0x0
300047e8:	e8bd0800 	pop	{fp}
300047ec:	e12fff1e 	bx	lr

300047f0 <int_timer2_handle_irq>:
300047f0:	e52db004 	push	{fp}		; (str fp, [sp, #-4]!)
300047f4:	e28db000 	add	fp, sp, #0	; 0x0
300047f8:	e28bd000 	add	sp, fp, #0	; 0x0
300047fc:	e8bd0800 	pop	{fp}
30004800:	e12fff1e 	bx	lr

30004804 <int_timer1_handle_irq>:
30004804:	e52db004 	push	{fp}		; (str fp, [sp, #-4]!)
30004808:	e28db000 	add	fp, sp, #0	; 0x0
3000480c:	e59f3018 	ldr	r3, [pc, #24]	; 3000482c <int_timer1_handle_irq+0x28>
30004810:	e5933000 	ldr	r3, [r3]
30004814:	e2832001 	add	r2, r3, #1	; 0x1
30004818:	e59f300c 	ldr	r3, [pc, #12]	; 3000482c <int_timer1_handle_irq+0x28>
3000481c:	e5832000 	str	r2, [r3]
30004820:	e28bd000 	add	sp, fp, #0	; 0x0
30004824:	e8bd0800 	pop	{fp}
30004828:	e12fff1e 	bx	lr
3000482c:	30006948 	.word	0x30006948

30004830 <int_timer0_handle_irq>:
30004830:	e92d4800 	push	{fp, lr}
30004834:	e28db004 	add	fp, sp, #4	; 0x4
30004838:	e59f3040 	ldr	r3, [pc, #64]	; 30004880 <int_timer0_handle_irq+0x50>
3000483c:	e5933000 	ldr	r3, [r3]
30004840:	e1a03283 	lsl	r3, r3, #5
30004844:	e3a00456 	mov	r0, #1442840576	; 0x56000000
30004848:	e2800054 	add	r0, r0, #84	; 0x54
3000484c:	e3a01020 	mov	r1, #32	; 0x20
30004850:	e1a02003 	mov	r2, r3
30004854:	eb000116 	bl	30004cb4 <gpio_set>
30004858:	e59f3020 	ldr	r3, [pc, #32]	; 30004880 <int_timer0_handle_irq+0x50>
3000485c:	e5933000 	ldr	r3, [r3]
30004860:	e3530000 	cmp	r3, #0	; 0x0
30004864:	13a02000 	movne	r2, #0	; 0x0
30004868:	03a02001 	moveq	r2, #1	; 0x1
3000486c:	e59f300c 	ldr	r3, [pc, #12]	; 30004880 <int_timer0_handle_irq+0x50>
30004870:	e5832000 	str	r2, [r3]
30004874:	e24bd004 	sub	sp, fp, #4	; 0x4
30004878:	e8bd4800 	pop	{fp, lr}
3000487c:	e12fff1e 	bx	lr
30004880:	3000694c 	.word	0x3000694c

30004884 <int_wdt_ac97_handle_irq>:
30004884:	e52db004 	push	{fp}		; (str fp, [sp, #-4]!)
30004888:	e28db000 	add	fp, sp, #0	; 0x0
3000488c:	e28bd000 	add	sp, fp, #0	; 0x0
30004890:	e8bd0800 	pop	{fp}
30004894:	e12fff1e 	bx	lr

30004898 <int_tick_handle_irq>:
30004898:	e52db004 	push	{fp}		; (str fp, [sp, #-4]!)
3000489c:	e28db000 	add	fp, sp, #0	; 0x0
300048a0:	e28bd000 	add	sp, fp, #0	; 0x0
300048a4:	e8bd0800 	pop	{fp}
300048a8:	e12fff1e 	bx	lr

300048ac <int_flt_handle_irq>:
300048ac:	e52db004 	push	{fp}		; (str fp, [sp, #-4]!)
300048b0:	e28db000 	add	fp, sp, #0	; 0x0
300048b4:	e28bd000 	add	sp, fp, #0	; 0x0
300048b8:	e8bd0800 	pop	{fp}
300048bc:	e12fff1e 	bx	lr

300048c0 <int_cam_handle_irq>:
300048c0:	e52db004 	push	{fp}		; (str fp, [sp, #-4]!)
300048c4:	e28db000 	add	fp, sp, #0	; 0x0
300048c8:	e28bd000 	add	sp, fp, #0	; 0x0
300048cc:	e8bd0800 	pop	{fp}
300048d0:	e12fff1e 	bx	lr

300048d4 <int_8_23_handle_irq>:
300048d4:	e92d4800 	push	{fp, lr}
300048d8:	e28db004 	add	fp, sp, #4	; 0x4
300048dc:	e24dd008 	sub	sp, sp, #8	; 0x8
300048e0:	e3a03456 	mov	r3, #1442840576	; 0x56000000
300048e4:	e28330a8 	add	r3, r3, #168	; 0xa8
300048e8:	e5933000 	ldr	r3, [r3]
300048ec:	e50b300c 	str	r3, [fp, #-12]
300048f0:	e3a03456 	mov	r3, #1442840576	; 0x56000000
300048f4:	e2833064 	add	r3, r3, #100	; 0x64
300048f8:	e5933000 	ldr	r3, [r3]
300048fc:	e50b3008 	str	r3, [fp, #-8]
30004900:	e51b300c 	ldr	r3, [fp, #-12]
30004904:	e2033b02 	and	r3, r3, #2048	; 0x800
30004908:	e3530000 	cmp	r3, #0	; 0x0
3000490c:	0a00000f 	beq	30004950 <int_8_23_handle_irq+0x7c>
30004910:	e51b3008 	ldr	r3, [fp, #-8]
30004914:	e2033008 	and	r3, r3, #8	; 0x8
30004918:	e3530000 	cmp	r3, #0	; 0x0
3000491c:	0a000005 	beq	30004938 <int_8_23_handle_irq+0x64>
30004920:	e3a00456 	mov	r0, #1442840576	; 0x56000000
30004924:	e2800054 	add	r0, r0, #84	; 0x54
30004928:	e3a01010 	mov	r1, #16	; 0x10
3000492c:	e3a02010 	mov	r2, #16	; 0x10
30004930:	eb0000df 	bl	30004cb4 <gpio_set>
30004934:	ea00001c 	b	300049ac <int_8_23_handle_irq+0xd8>
30004938:	e3a00456 	mov	r0, #1442840576	; 0x56000000
3000493c:	e2800054 	add	r0, r0, #84	; 0x54
30004940:	e3a01010 	mov	r1, #16	; 0x10
30004944:	e3a02000 	mov	r2, #0	; 0x0
30004948:	eb0000d9 	bl	30004cb4 <gpio_set>
3000494c:	ea000016 	b	300049ac <int_8_23_handle_irq+0xd8>
30004950:	e51b300c 	ldr	r3, [fp, #-12]
30004954:	e2033702 	and	r3, r3, #524288	; 0x80000
30004958:	e3530000 	cmp	r3, #0	; 0x0
3000495c:	0a000012 	beq	300049ac <int_8_23_handle_irq+0xd8>
30004960:	e51b3008 	ldr	r3, [fp, #-8]
30004964:	e2033b02 	and	r3, r3, #2048	; 0x800
30004968:	e3530000 	cmp	r3, #0	; 0x0
3000496c:	0a000007 	beq	30004990 <int_8_23_handle_irq+0xbc>
30004970:	e3a02456 	mov	r2, #1442840576	; 0x56000000
30004974:	e2822054 	add	r2, r2, #84	; 0x54
30004978:	e3a03456 	mov	r3, #1442840576	; 0x56000000
3000497c:	e2833054 	add	r3, r3, #84	; 0x54
30004980:	e5933000 	ldr	r3, [r3]
30004984:	e3833070 	orr	r3, r3, #112	; 0x70
30004988:	e5823000 	str	r3, [r2]
3000498c:	ea000006 	b	300049ac <int_8_23_handle_irq+0xd8>
30004990:	e3a02456 	mov	r2, #1442840576	; 0x56000000
30004994:	e2822054 	add	r2, r2, #84	; 0x54
30004998:	e3a03456 	mov	r3, #1442840576	; 0x56000000
3000499c:	e2833054 	add	r3, r3, #84	; 0x54
300049a0:	e5933000 	ldr	r3, [r3]
300049a4:	e3c33070 	bic	r3, r3, #112	; 0x70
300049a8:	e5823000 	str	r3, [r2]
300049ac:	e24bd004 	sub	sp, fp, #4	; 0x4
300049b0:	e8bd4800 	pop	{fp, lr}
300049b4:	e12fff1e 	bx	lr

300049b8 <int_4_7_handle_irq>:
300049b8:	e52db004 	push	{fp}		; (str fp, [sp, #-4]!)
300049bc:	e28db000 	add	fp, sp, #0	; 0x0
300049c0:	e28bd000 	add	sp, fp, #0	; 0x0
300049c4:	e8bd0800 	pop	{fp}
300049c8:	e12fff1e 	bx	lr

300049cc <int_3_handle_irq>:
300049cc:	e52db004 	push	{fp}		; (str fp, [sp, #-4]!)
300049d0:	e28db000 	add	fp, sp, #0	; 0x0
300049d4:	e28bd000 	add	sp, fp, #0	; 0x0
300049d8:	e8bd0800 	pop	{fp}
300049dc:	e12fff1e 	bx	lr

300049e0 <int_2_handle_irq>:
300049e0:	e92d4800 	push	{fp, lr}
300049e4:	e28db004 	add	fp, sp, #4	; 0x4
300049e8:	e24dd008 	sub	sp, sp, #8	; 0x8
300049ec:	e3a03456 	mov	r3, #1442840576	; 0x56000000
300049f0:	e2833054 	add	r3, r3, #84	; 0x54
300049f4:	e5933000 	ldr	r3, [r3]
300049f8:	e50b3008 	str	r3, [fp, #-8]
300049fc:	e51b3008 	ldr	r3, [fp, #-8]
30004a00:	e2033004 	and	r3, r3, #4	; 0x4
30004a04:	e3530000 	cmp	r3, #0	; 0x0
30004a08:	0a000005 	beq	30004a24 <int_2_handle_irq+0x44>
30004a0c:	e3a00456 	mov	r0, #1442840576	; 0x56000000
30004a10:	e2800054 	add	r0, r0, #84	; 0x54
30004a14:	e3a01020 	mov	r1, #32	; 0x20
30004a18:	e3a02020 	mov	r2, #32	; 0x20
30004a1c:	eb0000a4 	bl	30004cb4 <gpio_set>
30004a20:	ea000004 	b	30004a38 <int_2_handle_irq+0x58>
30004a24:	e3a00456 	mov	r0, #1442840576	; 0x56000000
30004a28:	e2800054 	add	r0, r0, #84	; 0x54
30004a2c:	e3a01020 	mov	r1, #32	; 0x20
30004a30:	e3a02000 	mov	r2, #0	; 0x0
30004a34:	eb00009e 	bl	30004cb4 <gpio_set>
30004a38:	e24bd004 	sub	sp, fp, #4	; 0x4
30004a3c:	e8bd4800 	pop	{fp, lr}
30004a40:	e12fff1e 	bx	lr

30004a44 <int_1_handle_irq>:
30004a44:	e52db004 	push	{fp}		; (str fp, [sp, #-4]!)
30004a48:	e28db000 	add	fp, sp, #0	; 0x0
30004a4c:	e28bd000 	add	sp, fp, #0	; 0x0
30004a50:	e8bd0800 	pop	{fp}
30004a54:	e12fff1e 	bx	lr

30004a58 <int_0_handle_irq>:
30004a58:	e92d4800 	push	{fp, lr}
30004a5c:	e28db004 	add	fp, sp, #4	; 0x4
30004a60:	e24dd008 	sub	sp, sp, #8	; 0x8
30004a64:	e3a03456 	mov	r3, #1442840576	; 0x56000000
30004a68:	e2833054 	add	r3, r3, #84	; 0x54
30004a6c:	e5933000 	ldr	r3, [r3]
30004a70:	e50b3008 	str	r3, [fp, #-8]
30004a74:	e51b3008 	ldr	r3, [fp, #-8]
30004a78:	e2033001 	and	r3, r3, #1	; 0x1
30004a7c:	e20330ff 	and	r3, r3, #255	; 0xff
30004a80:	e3530000 	cmp	r3, #0	; 0x0
30004a84:	0a000005 	beq	30004aa0 <int_0_handle_irq+0x48>
30004a88:	e3a00456 	mov	r0, #1442840576	; 0x56000000
30004a8c:	e2800054 	add	r0, r0, #84	; 0x54
30004a90:	e3a01040 	mov	r1, #64	; 0x40
30004a94:	e3a02040 	mov	r2, #64	; 0x40
30004a98:	eb000085 	bl	30004cb4 <gpio_set>
30004a9c:	ea000004 	b	30004ab4 <int_0_handle_irq+0x5c>
30004aa0:	e3a00456 	mov	r0, #1442840576	; 0x56000000
30004aa4:	e2800054 	add	r0, r0, #84	; 0x54
30004aa8:	e3a01040 	mov	r1, #64	; 0x40
30004aac:	e3a02000 	mov	r2, #0	; 0x0
30004ab0:	eb00007f 	bl	30004cb4 <gpio_set>
30004ab4:	e24bd004 	sub	sp, fp, #4	; 0x4
30004ab8:	e8bd4800 	pop	{fp, lr}
30004abc:	e12fff1e 	bx	lr

30004ac0 <handle_irq>:
30004ac0:	e92d4800 	push	{fp, lr}
30004ac4:	e28db004 	add	fp, sp, #4	; 0x4
30004ac8:	e24dd008 	sub	sp, sp, #8	; 0x8
30004acc:	e3a03456 	mov	r3, #1442840576	; 0x56000000
30004ad0:	e28330a8 	add	r3, r3, #168	; 0xa8
30004ad4:	e5933000 	ldr	r3, [r3]
30004ad8:	e50b300c 	str	r3, [fp, #-12]
30004adc:	e3a0344a 	mov	r3, #1241513984	; 0x4a000000
30004ae0:	e2833014 	add	r3, r3, #20	; 0x14
30004ae4:	e5933000 	ldr	r3, [r3]
30004ae8:	e50b3008 	str	r3, [fp, #-8]
30004aec:	e51b2008 	ldr	r2, [fp, #-8]
30004af0:	e59f308c 	ldr	r3, [pc, #140]	; 30004b84 <handle_irq+0xc4>
30004af4:	e7933102 	ldr	r3, [r3, r2, lsl #2]
30004af8:	e3530000 	cmp	r3, #0	; 0x0
30004afc:	0a000004 	beq	30004b14 <handle_irq+0x54>
30004b00:	e51b3008 	ldr	r3, [fp, #-8]
30004b04:	e59f2078 	ldr	r2, [pc, #120]	; 30004b84 <handle_irq+0xc4>
30004b08:	e7923103 	ldr	r3, [r2, r3, lsl #2]
30004b0c:	e1a0e00f 	mov	lr, pc
30004b10:	e12fff13 	bx	r3
30004b14:	e3a03456 	mov	r3, #1442840576	; 0x56000000
30004b18:	e28330a8 	add	r3, r3, #168	; 0xa8
30004b1c:	e51b200c 	ldr	r2, [fp, #-12]
30004b20:	e5832000 	str	r2, [r3]
30004b24:	e3a02001 	mov	r2, #1	; 0x1
30004b28:	e51b3008 	ldr	r3, [fp, #-8]
30004b2c:	e1a03312 	lsl	r3, r2, r3
30004b30:	e1a01003 	mov	r1, r3
30004b34:	e3a02001 	mov	r2, #1	; 0x1
30004b38:	e51b3008 	ldr	r3, [fp, #-8]
30004b3c:	e1a03312 	lsl	r3, r2, r3
30004b40:	e3a0044a 	mov	r0, #1241513984	; 0x4a000000
30004b44:	e1a02003 	mov	r2, r3
30004b48:	eb000059 	bl	30004cb4 <gpio_set>
30004b4c:	e3a02001 	mov	r2, #1	; 0x1
30004b50:	e51b3008 	ldr	r3, [fp, #-8]
30004b54:	e1a03312 	lsl	r3, r2, r3
30004b58:	e1a01003 	mov	r1, r3
30004b5c:	e3a02001 	mov	r2, #1	; 0x1
30004b60:	e51b3008 	ldr	r3, [fp, #-8]
30004b64:	e1a03312 	lsl	r3, r2, r3
30004b68:	e3a0044a 	mov	r0, #1241513984	; 0x4a000000
30004b6c:	e2800010 	add	r0, r0, #16	; 0x10
30004b70:	e1a02003 	mov	r2, r3
30004b74:	eb00004e 	bl	30004cb4 <gpio_set>
30004b78:	e24bd004 	sub	sp, fp, #4	; 0x4
30004b7c:	e8bd4800 	pop	{fp, lr}
30004b80:	e12fff1e 	bx	lr
30004b84:	3000684c 	.word	0x3000684c

30004b88 <register_irq>:
30004b88:	e92d4800 	push	{fp, lr}
30004b8c:	e28db004 	add	fp, sp, #4	; 0x4
30004b90:	e24dd008 	sub	sp, sp, #8	; 0x8
30004b94:	e50b0008 	str	r0, [fp, #-8]
30004b98:	e50b100c 	str	r1, [fp, #-12]
30004b9c:	e51b1008 	ldr	r1, [fp, #-8]
30004ba0:	e59f2030 	ldr	r2, [pc, #48]	; 30004bd8 <register_irq+0x50>
30004ba4:	e51b300c 	ldr	r3, [fp, #-12]
30004ba8:	e7823101 	str	r3, [r2, r1, lsl #2]
30004bac:	e3a02001 	mov	r2, #1	; 0x1
30004bb0:	e51b3008 	ldr	r3, [fp, #-8]
30004bb4:	e1a03312 	lsl	r3, r2, r3
30004bb8:	e3a0044a 	mov	r0, #1241513984	; 0x4a000000
30004bbc:	e2800008 	add	r0, r0, #8	; 0x8
30004bc0:	e1a01003 	mov	r1, r3
30004bc4:	e3a02000 	mov	r2, #0	; 0x0
30004bc8:	eb000039 	bl	30004cb4 <gpio_set>
30004bcc:	e24bd004 	sub	sp, fp, #4	; 0x4
30004bd0:	e8bd4800 	pop	{fp, lr}
30004bd4:	e12fff1e 	bx	lr
30004bd8:	3000684c 	.word	0x3000684c

30004bdc <printfhex>:
30004bdc:	e92d4800 	push	{fp, lr}
30004be0:	e28db004 	add	fp, sp, #4	; 0x4
30004be4:	e24dd018 	sub	sp, sp, #24	; 0x18
30004be8:	e50b0018 	str	r0, [fp, #-24]
30004bec:	e3a03000 	mov	r3, #0	; 0x0
30004bf0:	e50b3008 	str	r3, [fp, #-8]
30004bf4:	ea000010 	b	30004c3c <printfhex+0x60>
30004bf8:	e51b0008 	ldr	r0, [fp, #-8]
30004bfc:	e51b3018 	ldr	r3, [fp, #-24]
30004c00:	e20330ff 	and	r3, r3, #255	; 0xff
30004c04:	e1a02003 	mov	r2, r3
30004c08:	e202200f 	and	r2, r2, #15	; 0xf
30004c0c:	e3e0100b 	mvn	r1, #11	; 0xb
30004c10:	e24bc004 	sub	ip, fp, #4	; 0x4
30004c14:	e08c3000 	add	r3, ip, r0
30004c18:	e0831001 	add	r1, r3, r1
30004c1c:	e1a03002 	mov	r3, r2
30004c20:	e5c13000 	strb	r3, [r1]
30004c24:	e51b3018 	ldr	r3, [fp, #-24]
30004c28:	e1a03243 	asr	r3, r3, #4
30004c2c:	e50b3018 	str	r3, [fp, #-24]
30004c30:	e51b3008 	ldr	r3, [fp, #-8]
30004c34:	e2833001 	add	r3, r3, #1	; 0x1
30004c38:	e50b3008 	str	r3, [fp, #-8]
30004c3c:	e51b3008 	ldr	r3, [fp, #-8]
30004c40:	e3530007 	cmp	r3, #7	; 0x7
30004c44:	daffffeb 	ble	30004bf8 <printfhex+0x1c>
30004c48:	e59f005c 	ldr	r0, [pc, #92]	; 30004cac <printfhex+0xd0>
30004c4c:	ebfffb3c 	bl	30003944 <puts>
30004c50:	e3a03007 	mov	r3, #7	; 0x7
30004c54:	e50b3008 	str	r3, [fp, #-8]
30004c58:	ea00000d 	b	30004c94 <printfhex+0xb8>
30004c5c:	e51b3008 	ldr	r3, [fp, #-8]
30004c60:	e3e0200b 	mvn	r2, #11	; 0xb
30004c64:	e24b1004 	sub	r1, fp, #4	; 0x4
30004c68:	e0813003 	add	r3, r1, r3
30004c6c:	e0833002 	add	r3, r3, r2
30004c70:	e5d33000 	ldrb	r3, [r3]
30004c74:	e1a02003 	mov	r2, r3
30004c78:	e59f3030 	ldr	r3, [pc, #48]	; 30004cb0 <printfhex+0xd4>
30004c7c:	e7d33002 	ldrb	r3, [r3, r2]
30004c80:	e1a00003 	mov	r0, r3
30004c84:	ebfffae8 	bl	3000382c <putchar>
30004c88:	e51b3008 	ldr	r3, [fp, #-8]
30004c8c:	e2433001 	sub	r3, r3, #1	; 0x1
30004c90:	e50b3008 	str	r3, [fp, #-8]
30004c94:	e51b3008 	ldr	r3, [fp, #-8]
30004c98:	e3530000 	cmp	r3, #0	; 0x0
30004c9c:	aaffffee 	bge	30004c5c <printfhex+0x80>
30004ca0:	e24bd004 	sub	sp, fp, #4	; 0x4
30004ca4:	e8bd4800 	pop	{fp, lr}
30004ca8:	e12fff1e 	bx	lr
30004cac:	3000663c 	.word	0x3000663c
30004cb0:	3000662c 	.word	0x3000662c

30004cb4 <gpio_set>:
30004cb4:	e52db004 	push	{fp}		; (str fp, [sp, #-4]!)
30004cb8:	e28db000 	add	fp, sp, #0	; 0x0
30004cbc:	e24dd01c 	sub	sp, sp, #28	; 0x1c
30004cc0:	e50b0010 	str	r0, [fp, #-16]
30004cc4:	e50b1014 	str	r1, [fp, #-20]
30004cc8:	e50b2018 	str	r2, [fp, #-24]
30004ccc:	e51b3010 	ldr	r3, [fp, #-16]
30004cd0:	e5933000 	ldr	r3, [r3]
30004cd4:	e50b3008 	str	r3, [fp, #-8]
30004cd8:	e51b3014 	ldr	r3, [fp, #-20]
30004cdc:	e1e02003 	mvn	r2, r3
30004ce0:	e51b3018 	ldr	r3, [fp, #-24]
30004ce4:	e0023003 	and	r3, r2, r3
30004ce8:	e3530000 	cmp	r3, #0	; 0x0
30004cec:	0a000002 	beq	30004cfc <gpio_set+0x48>
30004cf0:	e3e03000 	mvn	r3, #0	; 0x0
30004cf4:	e50b301c 	str	r3, [fp, #-28]
30004cf8:	ea000011 	b	30004d44 <gpio_set+0x90>
30004cfc:	e24b1008 	sub	r1, fp, #8	; 0x8
30004d00:	e24b3008 	sub	r3, fp, #8	; 0x8
30004d04:	e5932000 	ldr	r2, [r3]
30004d08:	e51b3014 	ldr	r3, [fp, #-20]
30004d0c:	e1e03003 	mvn	r3, r3
30004d10:	e0023003 	and	r3, r2, r3
30004d14:	e5813000 	str	r3, [r1]
30004d18:	e24b1008 	sub	r1, fp, #8	; 0x8
30004d1c:	e24b3008 	sub	r3, fp, #8	; 0x8
30004d20:	e5932000 	ldr	r2, [r3]
30004d24:	e51b3018 	ldr	r3, [fp, #-24]
30004d28:	e1823003 	orr	r3, r2, r3
30004d2c:	e5813000 	str	r3, [r1]
30004d30:	e51b2010 	ldr	r2, [fp, #-16]
30004d34:	e51b3008 	ldr	r3, [fp, #-8]
30004d38:	e5823000 	str	r3, [r2]
30004d3c:	e3a03000 	mov	r3, #0	; 0x0
30004d40:	e50b301c 	str	r3, [fp, #-28]
30004d44:	e51b301c 	ldr	r3, [fp, #-28]
30004d48:	e1a00003 	mov	r0, r3
30004d4c:	e28bd000 	add	sp, fp, #0	; 0x0
30004d50:	e8bd0800 	pop	{fp}
30004d54:	e12fff1e 	bx	lr

30004d58 <strcpy>:
30004d58:	e52db004 	push	{fp}		; (str fp, [sp, #-4]!)
30004d5c:	e28db000 	add	fp, sp, #0	; 0x0
30004d60:	e24dd00c 	sub	sp, sp, #12	; 0xc
30004d64:	e50b0008 	str	r0, [fp, #-8]
30004d68:	e50b100c 	str	r1, [fp, #-12]
30004d6c:	e51b300c 	ldr	r3, [fp, #-12]
30004d70:	e5d33000 	ldrb	r3, [r3]
30004d74:	e51b2008 	ldr	r2, [fp, #-8]
30004d78:	e5c23000 	strb	r3, [r2]
30004d7c:	e51b3008 	ldr	r3, [fp, #-8]
30004d80:	e5d33000 	ldrb	r3, [r3]
30004d84:	e3530000 	cmp	r3, #0	; 0x0
30004d88:	03a03000 	moveq	r3, #0	; 0x0
30004d8c:	13a03001 	movne	r3, #1	; 0x1
30004d90:	e20320ff 	and	r2, r3, #255	; 0xff
30004d94:	e51b3008 	ldr	r3, [fp, #-8]
30004d98:	e2833001 	add	r3, r3, #1	; 0x1
30004d9c:	e50b3008 	str	r3, [fp, #-8]
30004da0:	e51b300c 	ldr	r3, [fp, #-12]
30004da4:	e2833001 	add	r3, r3, #1	; 0x1
30004da8:	e50b300c 	str	r3, [fp, #-12]
30004dac:	e3520000 	cmp	r2, #0	; 0x0
30004db0:	1affffed 	bne	30004d6c <strcpy+0x14>
30004db4:	e28bd000 	add	sp, fp, #0	; 0x0
30004db8:	e8bd0800 	pop	{fp}
30004dbc:	e12fff1e 	bx	lr

30004dc0 <setup_start_tag>:
30004dc0:	e52db004 	push	{fp}		; (str fp, [sp, #-4]!)
30004dc4:	e28db000 	add	fp, sp, #0	; 0x0
30004dc8:	e59f208c 	ldr	r2, [pc, #140]	; 30004e5c <setup_start_tag+0x9c>
30004dcc:	e3a03203 	mov	r3, #805306368	; 0x30000000
30004dd0:	e2833c01 	add	r3, r3, #256	; 0x100
30004dd4:	e5823000 	str	r3, [r2]
30004dd8:	e59f307c 	ldr	r3, [pc, #124]	; 30004e5c <setup_start_tag+0x9c>
30004ddc:	e5932000 	ldr	r2, [r3]
30004de0:	e3a03355 	mov	r3, #1409286145	; 0x54000001
30004de4:	e2833841 	add	r3, r3, #4259840	; 0x410000
30004de8:	e5823004 	str	r3, [r2, #4]
30004dec:	e59f3068 	ldr	r3, [pc, #104]	; 30004e5c <setup_start_tag+0x9c>
30004df0:	e5932000 	ldr	r2, [r3]
30004df4:	e3a03005 	mov	r3, #5	; 0x5
30004df8:	e5823000 	str	r3, [r2]
30004dfc:	e59f3058 	ldr	r3, [pc, #88]	; 30004e5c <setup_start_tag+0x9c>
30004e00:	e5932000 	ldr	r2, [r3]
30004e04:	e3a03000 	mov	r3, #0	; 0x0
30004e08:	e5823008 	str	r3, [r2, #8]
30004e0c:	e59f3048 	ldr	r3, [pc, #72]	; 30004e5c <setup_start_tag+0x9c>
30004e10:	e5932000 	ldr	r2, [r3]
30004e14:	e3a03000 	mov	r3, #0	; 0x0
30004e18:	e582300c 	str	r3, [r2, #12]
30004e1c:	e59f3038 	ldr	r3, [pc, #56]	; 30004e5c <setup_start_tag+0x9c>
30004e20:	e5932000 	ldr	r2, [r3]
30004e24:	e3a03000 	mov	r3, #0	; 0x0
30004e28:	e5823010 	str	r3, [r2, #16]
30004e2c:	e59f3028 	ldr	r3, [pc, #40]	; 30004e5c <setup_start_tag+0x9c>
30004e30:	e5932000 	ldr	r2, [r3]
30004e34:	e59f3020 	ldr	r3, [pc, #32]	; 30004e5c <setup_start_tag+0x9c>
30004e38:	e5933000 	ldr	r3, [r3]
30004e3c:	e5933000 	ldr	r3, [r3]
30004e40:	e1a03103 	lsl	r3, r3, #2
30004e44:	e0822003 	add	r2, r2, r3
30004e48:	e59f300c 	ldr	r3, [pc, #12]	; 30004e5c <setup_start_tag+0x9c>
30004e4c:	e5832000 	str	r2, [r3]
30004e50:	e28bd000 	add	sp, fp, #0	; 0x0
30004e54:	e8bd0800 	pop	{fp}
30004e58:	e12fff1e 	bx	lr
30004e5c:	30006950 	.word	0x30006950

30004e60 <setup_memory_tags>:
30004e60:	e52db004 	push	{fp}		; (str fp, [sp, #-4]!)
30004e64:	e28db000 	add	fp, sp, #0	; 0x0
30004e68:	e59f306c 	ldr	r3, [pc, #108]	; 30004edc <setup_memory_tags+0x7c>
30004e6c:	e5932000 	ldr	r2, [r3]
30004e70:	e3a03395 	mov	r3, #1409286146	; 0x54000002
30004e74:	e2833841 	add	r3, r3, #4259840	; 0x410000
30004e78:	e5823004 	str	r3, [r2, #4]
30004e7c:	e59f3058 	ldr	r3, [pc, #88]	; 30004edc <setup_memory_tags+0x7c>
30004e80:	e5932000 	ldr	r2, [r3]
30004e84:	e3a03004 	mov	r3, #4	; 0x4
30004e88:	e5823000 	str	r3, [r2]
30004e8c:	e59f3048 	ldr	r3, [pc, #72]	; 30004edc <setup_memory_tags+0x7c>
30004e90:	e5932000 	ldr	r2, [r3]
30004e94:	e3a03203 	mov	r3, #805306368	; 0x30000000
30004e98:	e582300c 	str	r3, [r2, #12]
30004e9c:	e59f3038 	ldr	r3, [pc, #56]	; 30004edc <setup_memory_tags+0x7c>
30004ea0:	e5932000 	ldr	r2, [r3]
30004ea4:	e3a03301 	mov	r3, #67108864	; 0x4000000
30004ea8:	e5823008 	str	r3, [r2, #8]
30004eac:	e59f3028 	ldr	r3, [pc, #40]	; 30004edc <setup_memory_tags+0x7c>
30004eb0:	e5932000 	ldr	r2, [r3]
30004eb4:	e59f3020 	ldr	r3, [pc, #32]	; 30004edc <setup_memory_tags+0x7c>
30004eb8:	e5933000 	ldr	r3, [r3]
30004ebc:	e5933000 	ldr	r3, [r3]
30004ec0:	e1a03103 	lsl	r3, r3, #2
30004ec4:	e0822003 	add	r2, r2, r3
30004ec8:	e59f300c 	ldr	r3, [pc, #12]	; 30004edc <setup_memory_tags+0x7c>
30004ecc:	e5832000 	str	r2, [r3]
30004ed0:	e28bd000 	add	sp, fp, #0	; 0x0
30004ed4:	e8bd0800 	pop	{fp}
30004ed8:	e12fff1e 	bx	lr
30004edc:	30006950 	.word	0x30006950

30004ee0 <setup_commandline_tag>:
30004ee0:	e92d4800 	push	{fp, lr}
30004ee4:	e28db004 	add	fp, sp, #4	; 0x4
30004ee8:	e24dd010 	sub	sp, sp, #16	; 0x10
30004eec:	e50b0010 	str	r0, [fp, #-16]
30004ef0:	e51b0010 	ldr	r0, [fp, #-16]
30004ef4:	ebffef31 	bl	30000bc0 <strlen>
30004ef8:	e1a03000 	mov	r3, r0
30004efc:	e2833001 	add	r3, r3, #1	; 0x1
30004f00:	e50b3008 	str	r3, [fp, #-8]
30004f04:	e59f3070 	ldr	r3, [pc, #112]	; 30004f7c <setup_commandline_tag+0x9c>
30004f08:	e5932000 	ldr	r2, [r3]
30004f0c:	e3a03315 	mov	r3, #1409286144	; 0x54000000
30004f10:	e2833841 	add	r3, r3, #4259840	; 0x410000
30004f14:	e2833009 	add	r3, r3, #9	; 0x9
30004f18:	e5823004 	str	r3, [r2, #4]
30004f1c:	e59f3058 	ldr	r3, [pc, #88]	; 30004f7c <setup_commandline_tag+0x9c>
30004f20:	e5932000 	ldr	r2, [r3]
30004f24:	e51b3008 	ldr	r3, [fp, #-8]
30004f28:	e283300b 	add	r3, r3, #11	; 0xb
30004f2c:	e1a03123 	lsr	r3, r3, #2
30004f30:	e5823000 	str	r3, [r2]
30004f34:	e59f3040 	ldr	r3, [pc, #64]	; 30004f7c <setup_commandline_tag+0x9c>
30004f38:	e5933000 	ldr	r3, [r3]
30004f3c:	e2833008 	add	r3, r3, #8	; 0x8
30004f40:	e1a00003 	mov	r0, r3
30004f44:	e51b1010 	ldr	r1, [fp, #-16]
30004f48:	ebffff82 	bl	30004d58 <strcpy>
30004f4c:	e59f3028 	ldr	r3, [pc, #40]	; 30004f7c <setup_commandline_tag+0x9c>
30004f50:	e5932000 	ldr	r2, [r3]
30004f54:	e59f3020 	ldr	r3, [pc, #32]	; 30004f7c <setup_commandline_tag+0x9c>
30004f58:	e5933000 	ldr	r3, [r3]
30004f5c:	e5933000 	ldr	r3, [r3]
30004f60:	e1a03103 	lsl	r3, r3, #2
30004f64:	e0822003 	add	r2, r2, r3
30004f68:	e59f300c 	ldr	r3, [pc, #12]	; 30004f7c <setup_commandline_tag+0x9c>
30004f6c:	e5832000 	str	r2, [r3]
30004f70:	e24bd004 	sub	sp, fp, #4	; 0x4
30004f74:	e8bd4800 	pop	{fp, lr}
30004f78:	e12fff1e 	bx	lr
30004f7c:	30006950 	.word	0x30006950

30004f80 <setup_end_tag>:
30004f80:	e52db004 	push	{fp}		; (str fp, [sp, #-4]!)
30004f84:	e28db000 	add	fp, sp, #0	; 0x0
30004f88:	e59f3024 	ldr	r3, [pc, #36]	; 30004fb4 <setup_end_tag+0x34>
30004f8c:	e5932000 	ldr	r2, [r3]
30004f90:	e3a03000 	mov	r3, #0	; 0x0
30004f94:	e5823004 	str	r3, [r2, #4]
30004f98:	e59f3014 	ldr	r3, [pc, #20]	; 30004fb4 <setup_end_tag+0x34>
30004f9c:	e5932000 	ldr	r2, [r3]
30004fa0:	e3a03000 	mov	r3, #0	; 0x0
30004fa4:	e5823000 	str	r3, [r2]
30004fa8:	e28bd000 	add	sp, fp, #0	; 0x0
30004fac:	e8bd0800 	pop	{fp}
30004fb0:	e12fff1e 	bx	lr
30004fb4:	30006950 	.word	0x30006950

30004fb8 <main>:
30004fb8:	e92d4800 	push	{fp, lr}
30004fbc:	e28db004 	add	fp, sp, #4	; 0x4
30004fc0:	e24dd018 	sub	sp, sp, #24	; 0x18
30004fc4:	e3a03001 	mov	r3, #1	; 0x1
30004fc8:	e50b3008 	str	r3, [fp, #-8]
30004fcc:	e59f007c 	ldr	r0, [pc, #124]	; 30005050 <main+0x98>
30004fd0:	ebfffa5b 	bl	30003944 <puts>
30004fd4:	e59f0078 	ldr	r0, [pc, #120]	; 30005054 <main+0x9c>
30004fd8:	ebfffa59 	bl	30003944 <puts>
30004fdc:	e3a00806 	mov	r0, #393216	; 0x60000
30004fe0:	e2800040 	add	r0, r0, #64	; 0x40
30004fe4:	e3a01203 	mov	r1, #805306368	; 0x30000000
30004fe8:	e2811902 	add	r1, r1, #32768	; 0x8000
30004fec:	e3a02602 	mov	r2, #2097152	; 0x200000
30004ff0:	ebffed94 	bl	30000648 <nand_read>
30004ff4:	e59f005c 	ldr	r0, [pc, #92]	; 30005058 <main+0xa0>
30004ff8:	ebfffa51 	bl	30003944 <puts>
30004ffc:	ebffff6f 	bl	30004dc0 <setup_start_tag>
30005000:	ebffff96 	bl	30004e60 <setup_memory_tags>
30005004:	e59f0050 	ldr	r0, [pc, #80]	; 3000505c <main+0xa4>
30005008:	ebffffb4 	bl	30004ee0 <setup_commandline_tag>
3000500c:	ebffffdb 	bl	30004f80 <setup_end_tag>
30005010:	e3a03203 	mov	r3, #805306368	; 0x30000000
30005014:	e2833902 	add	r3, r3, #32768	; 0x8000
30005018:	e50b3010 	str	r3, [fp, #-16]
3000501c:	e51b3010 	ldr	r3, [fp, #-16]
30005020:	e3a00000 	mov	r0, #0	; 0x0
30005024:	e3a01f5a 	mov	r1, #360	; 0x168
30005028:	e2811002 	add	r1, r1, #2	; 0x2
3000502c:	e3a02203 	mov	r2, #805306368	; 0x30000000
30005030:	e2822c01 	add	r2, r2, #256	; 0x100
30005034:	e1a0e00f 	mov	lr, pc
30005038:	e12fff13 	bx	r3
3000503c:	e3a03000 	mov	r3, #0	; 0x0
30005040:	e1a00003 	mov	r0, r3
30005044:	e24bd004 	sub	sp, fp, #4	; 0x4
30005048:	e8bd4800 	pop	{fp, lr}
3000504c:	e12fff1e 	bx	lr
30005050:	30006640 	.word	0x30006640
30005054:	30006654 	.word	0x30006654
30005058:	3000666c 	.word	0x3000666c
3000505c:	300066a0 	.word	0x300066a0

30005060 <__aeabi_uidiv>:
30005060:	e2512001 	subs	r2, r1, #1	; 0x1
30005064:	012fff1e 	bxeq	lr
30005068:	3a000036 	bcc	30005148 <__aeabi_uidiv+0xe8>
3000506c:	e1500001 	cmp	r0, r1
30005070:	9a000022 	bls	30005100 <__aeabi_uidiv+0xa0>
30005074:	e1110002 	tst	r1, r2
30005078:	0a000023 	beq	3000510c <__aeabi_uidiv+0xac>
3000507c:	e311020e 	tst	r1, #-536870912	; 0xe0000000
30005080:	01a01181 	lsleq	r1, r1, #3
30005084:	03a03008 	moveq	r3, #8	; 0x8
30005088:	13a03001 	movne	r3, #1	; 0x1
3000508c:	e3510201 	cmp	r1, #268435456	; 0x10000000
30005090:	31510000 	cmpcc	r1, r0
30005094:	31a01201 	lslcc	r1, r1, #4
30005098:	31a03203 	lslcc	r3, r3, #4
3000509c:	3afffffa 	bcc	3000508c <__aeabi_uidiv+0x2c>
300050a0:	e3510102 	cmp	r1, #-2147483648	; 0x80000000
300050a4:	31510000 	cmpcc	r1, r0
300050a8:	31a01081 	lslcc	r1, r1, #1
300050ac:	31a03083 	lslcc	r3, r3, #1
300050b0:	3afffffa 	bcc	300050a0 <__aeabi_uidiv+0x40>
300050b4:	e3a02000 	mov	r2, #0	; 0x0
300050b8:	e1500001 	cmp	r0, r1
300050bc:	20400001 	subcs	r0, r0, r1
300050c0:	21822003 	orrcs	r2, r2, r3
300050c4:	e15000a1 	cmp	r0, r1, lsr #1
300050c8:	204000a1 	subcs	r0, r0, r1, lsr #1
300050cc:	218220a3 	orrcs	r2, r2, r3, lsr #1
300050d0:	e1500121 	cmp	r0, r1, lsr #2
300050d4:	20400121 	subcs	r0, r0, r1, lsr #2
300050d8:	21822123 	orrcs	r2, r2, r3, lsr #2
300050dc:	e15001a1 	cmp	r0, r1, lsr #3
300050e0:	204001a1 	subcs	r0, r0, r1, lsr #3
300050e4:	218221a3 	orrcs	r2, r2, r3, lsr #3
300050e8:	e3500000 	cmp	r0, #0	; 0x0
300050ec:	11b03223 	lsrsne	r3, r3, #4
300050f0:	11a01221 	lsrne	r1, r1, #4
300050f4:	1affffef 	bne	300050b8 <__aeabi_uidiv+0x58>
300050f8:	e1a00002 	mov	r0, r2
300050fc:	e12fff1e 	bx	lr
30005100:	03a00001 	moveq	r0, #1	; 0x1
30005104:	13a00000 	movne	r0, #0	; 0x0
30005108:	e12fff1e 	bx	lr
3000510c:	e3510801 	cmp	r1, #65536	; 0x10000
30005110:	21a01821 	lsrcs	r1, r1, #16
30005114:	23a02010 	movcs	r2, #16	; 0x10
30005118:	33a02000 	movcc	r2, #0	; 0x0
3000511c:	e3510c01 	cmp	r1, #256	; 0x100
30005120:	21a01421 	lsrcs	r1, r1, #8
30005124:	22822008 	addcs	r2, r2, #8	; 0x8
30005128:	e3510010 	cmp	r1, #16	; 0x10
3000512c:	21a01221 	lsrcs	r1, r1, #4
30005130:	22822004 	addcs	r2, r2, #4	; 0x4
30005134:	e3510004 	cmp	r1, #4	; 0x4
30005138:	82822003 	addhi	r2, r2, #3	; 0x3
3000513c:	908220a1 	addls	r2, r2, r1, lsr #1
30005140:	e1a00230 	lsr	r0, r0, r2
30005144:	e12fff1e 	bx	lr
30005148:	e3500000 	cmp	r0, #0	; 0x0
3000514c:	13e00000 	mvnne	r0, #0	; 0x0
30005150:	ea000007 	b	30005174 <__aeabi_idiv0>

30005154 <__aeabi_uidivmod>:
30005154:	e3510000 	cmp	r1, #0	; 0x0
30005158:	0afffffa 	beq	30005148 <__aeabi_uidiv+0xe8>
3000515c:	e92d4003 	push	{r0, r1, lr}
30005160:	ebffffbe 	bl	30005060 <__aeabi_uidiv>
30005164:	e8bd4006 	pop	{r1, r2, lr}
30005168:	e0030092 	mul	r3, r2, r0
3000516c:	e0411003 	sub	r1, r1, r3
30005170:	e12fff1e 	bx	lr

30005174 <__aeabi_idiv0>:
30005174:	e92d4002 	push	{r1, lr}
30005178:	e3a00008 	mov	r0, #8	; 0x8
3000517c:	ebfff1c8 	bl	300018a4 <raise>
30005180:	e8bd4002 	pop	{r1, lr}
30005184:	e12fff1e 	bx	lr
Disassembly of section .rodata:

30005188 <fontdata_8x16-0x2b4>:
30005188:	656b616d 	strbvs	r6, [fp, #-365]!
3000518c:	20202072 	eorcs	r2, r0, r2, ror r0
30005190:	20206469 	eorcs	r6, r0, r9, ror #8
30005194:	7830203d 	ldmdavc	r0!, {r0, r2, r3, r4, r5, sp}
30005198:	0d0a7825 	stceq	8, cr7, [sl, #-148]
3000519c:	00000000 	andeq	r0, r0, r0
300051a0:	69766564 	.word	0x69766564
300051a4:	20206563 	eorcs	r6, r0, r3, ror #10
300051a8:	20206469 	eorcs	r6, r0, r9, ror #8
300051ac:	7830203d 	.word	0x7830203d
300051b0:	0d0a7825 	stceq	8, cr7, [sl, #-148]
300051b4:	00000000 	andeq	r0, r0, r0
300051b8:	20647233 	.word	0x20647233
300051bc:	65747962 	ldrbvs	r7, [r4, #-2402]!
300051c0:	20202020 	eorcs	r2, r0, r0, lsr #32
300051c4:	7830203d 	.word	0x7830203d
300051c8:	0d0a7825 	stceq	8, cr7, [sl, #-148]
300051cc:	00000000 	andeq	r0, r0, r0
300051d0:	20687434 	.word	0x20687434
300051d4:	65747962 	ldrbvs	r7, [r4, #-2402]!
300051d8:	20202020 	eorcs	r2, r0, r0, lsr #32
300051dc:	7830203d 	ldmdavc	r0!, {r0, r2, r3, r4, r5, sp}
300051e0:	0d0a7825 	stceq	8, cr7, [sl, #-148]
300051e4:	00000000 	andeq	r0, r0, r0
300051e8:	65676170 	.word	0x65676170
300051ec:	69732020 	ldmdbvs	r3!, {r5, sp}^
300051f0:	2020657a 	eorcs	r6, r0, sl, ror r5
300051f4:	6425203d 	.word	0x6425203d
300051f8:	0a626b20 	beq	3189fe80 <end+0x18994fc>
300051fc:	0000000d 	andeq	r0, r0, sp
30005200:	636f6c62 	.word	0x636f6c62
30005204:	6973206b 	ldmdbvs	r3!, {r0, r1, r3, r5, r6, sp}^
30005208:	2020657a 	eorcs	r6, r0, sl, ror r5
3000520c:	6425203d 	strtvs	r2, [r5], #-61
30005210:	0a626b20 	beq	3189fe98 <end+0x1899514>
30005214:	0000000d 	andeq	r0, r0, sp
30005218:	20687435 	rsbcs	r7, r8, r5, lsr r4
3000521c:	65747962 	ldrbvs	r7, [r4, #-2402]!
30005220:	20202020 	eorcs	r2, r0, r0, lsr #32
30005224:	7830203d 	ldmdavc	r0!, {r0, r2, r3, r4, r5, sp}
30005228:	0d0a7825 	stceq	8, cr7, [sl, #-148]
3000522c:	00000000 	andeq	r0, r0, r0
30005230:	646e616e 	strbtvs	r6, [lr], #-366
30005234:	6172655f 	.word	0x6172655f
30005238:	65206573 	strvs	r6, [r0, #-1395]!
3000523c:	202c7272 	eorcs	r7, ip, r2, ror r2
30005240:	72646461 	.word	0x72646461
30005244:	20736920 	rsbscs	r6, r3, r0, lsr #18
30005248:	20746f6e 	rsbscs	r6, r4, lr, ror #30
3000524c:	636f6c62 	cmnvs	pc, #25088	; 0x6200
30005250:	6c61206b 	stclvs	0, cr2, [r1], #-428
30005254:	0a6e6769 	beq	31b9f000 <end+0x1b9867c>
30005258:	0000000d 	andeq	r0, r0, sp
3000525c:	646e616e 	strbtvs	r6, [lr], #-366
30005260:	6172655f 	cmnvs	r2, pc, asr r5
30005264:	65206573 	strvs	r6, [r0, #-1395]!
30005268:	202c7272 	eorcs	r7, ip, r2, ror r2
3000526c:	206e656c 	rsbcs	r6, lr, ip, ror #10
30005270:	6e207369 	cdpvs	3, 2, cr7, cr0, cr9, {3}
30005274:	6220746f 	eorvs	r7, r0, #1862270976	; 0x6f000000
30005278:	6b636f6c 	blvs	318e1030 <end+0x18da6ac>
3000527c:	696c6120 	stmdbvs	ip!, {r5, r8, sp, lr}^
30005280:	0d0a6e67 	stceq	14, cr6, [sl, #-412]
30005284:	00000000 	andeq	r0, r0, r0
30005288:	65746e45 	ldrbvs	r6, [r4, #-3653]!
3000528c:	68742072 	ldmdavs	r4!, {r1, r4, r5, r6, sp}^
30005290:	64612065 	strbtvs	r2, [r1], #-101
30005294:	73657264 	cmnvc	r5, #1073741830	; 0x40000006
30005298:	6f742073 	svcvs	0x00742073
3000529c:	61657220 	.word	0x61657220
300052a0:	00203a64 	eoreq	r3, r0, r4, ror #20
300052a4:	61746144 	cmnvs	r4, r4, asr #2
300052a8:	0a203a20 	.word	0x0a203a20
300052ac:	0000000d 	andeq	r0, r0, sp
300052b0:	78323025 	ldmdavc	r2!, {r0, r2, r5, ip, sp}
300052b4:	00000020 	.word	0x00000020
300052b8:	3b202020 	blcc	3080d340 <end+0x8069bc>
300052bc:	00000020 	.word	0x00000020
300052c0:	00000d0a 	andeq	r0, r0, sl, lsl #26
300052c4:	65746e45 	ldrbvs	r6, [r4, #-3653]!
300052c8:	68742072 	.word	0x68742072
300052cc:	64612065 	strbtvs	r2, [r1], #-101
300052d0:	73657264 	cmnvc	r5, #1073741830	; 0x40000006
300052d4:	666f2073 	.word	0x666f2073
300052d8:	63657320 	cmnvs	r5, #-2147483648	; 0x80000000
300052dc:	20726f74 	rsbscs	r6, r2, r4, ror pc
300052e0:	65206f74 	.word	0x65206f74
300052e4:	65736172 	ldrbvs	r6, [r3, #-370]!
300052e8:	0000203a 	andeq	r2, r0, sl, lsr r0
300052ec:	73617265 	.word	0x73617265
300052f0:	20676e69 	rsbcs	r6, r7, r9, ror #28
300052f4:	0a2e2e2e 	beq	30b90bb4 <end+0xb8a230>
300052f8:	0000000d 	andeq	r0, r0, sp
300052fc:	65746e45 	ldrbvs	r6, [r4, #-3653]!
30005300:	68742072 	ldmdavs	r4!, {r1, r4, r5, r6, sp}^
30005304:	64612065 	strbtvs	r2, [r1], #-101
30005308:	73657264 	cmnvc	r5, #1073741830	; 0x40000006
3000530c:	666f2073 	.word	0x666f2073
30005310:	63657320 	cmnvs	r5, #-2147483648	; 0x80000000
30005314:	20726f74 	rsbscs	r6, r2, r4, ror pc
30005318:	77206f74 	.word	0x77206f74
3000531c:	65746972 	ldrbvs	r6, [r4, #-2418]!
30005320:	0000203a 	andeq	r2, r0, sl, lsr r0
30005324:	65746e45 	ldrbvs	r6, [r4, #-3653]!
30005328:	68742072 	.word	0x68742072
3000532c:	74732065 	ldrbtvc	r2, [r3], #-101
30005330:	676e6972 	undefined
30005334:	206f7420 	rsbcs	r7, pc, r0, lsr #8
30005338:	74697277 	strbtvc	r7, [r9], #-631
3000533c:	00203a65 	eoreq	r3, r0, r5, ror #20
30005340:	74697277 	strbtvc	r7, [r9], #-631
30005344:	20676e69 	rsbcs	r6, r7, r9, ror #28
30005348:	0a2e2e2e 	beq	30b90c08 <end+0xb8a284>
3000534c:	0000000d 	andeq	r0, r0, sp
30005350:	2d2d2d2d 	stccs	13, cr2, [sp, #-180]!
30005354:	2d2d2d2d 	stccs	13, cr2, [sp, #-180]!
30005358:	2d2d2d2d 	stccs	13, cr2, [sp, #-180]!
3000535c:	2d2d2d2d 	stccs	13, cr2, [sp, #-180]!
30005360:	2d2d2d2d 	stccs	13, cr2, [sp, #-180]!
30005364:	2d2d2d2d 	stccs	13, cr2, [sp, #-180]!
30005368:	2d2d2d2d 	stccs	13, cr2, [sp, #-180]!
3000536c:	000d2d2d 	.word	0x000d2d2d
30005370:	205d735b 	subscs	r7, sp, fp, asr r3
30005374:	6e616353 	mcrvs	3, 3, r6, cr1, cr3, {2}
30005378:	6e616e20 	cdpvs	14, 6, cr6, cr1, cr0, {1}
3000537c:	6c662064 	stclvs	0, cr2, [r6], #-400
30005380:	0a687361 	.word	0x0a687361
30005384:	0000000d 	andeq	r0, r0, sp
30005388:	205d655b 	subscs	r6, sp, fp, asr r5
3000538c:	73617245 	.word	0x73617245
30005390:	616e2065 	cmnvs	lr, r5, rrx
30005394:	6620646e 	strtvs	r6, [r0], -lr, ror #8
30005398:	6873616c 	.word	0x6873616c
3000539c:	00000d0a 	andeq	r0, r0, sl, lsl #26
300053a0:	205d775b 	subscs	r7, sp, fp, asr r7
300053a4:	74697257 	.word	0x74697257
300053a8:	616e2065 	cmnvs	lr, r5, rrx
300053ac:	6620646e 	strtvs	r6, [r0], -lr, ror #8
300053b0:	6873616c 	ldmdavs	r3!, {r2, r3, r5, r6, r8, sp, lr}^
300053b4:	00000d0a 	andeq	r0, r0, sl, lsl #26
300053b8:	205d725b 	.word	0x205d725b
300053bc:	64616552 	strbtvs	r6, [r1], #-1362
300053c0:	6e616e20 	cdpvs	14, 6, cr6, cr1, cr0, {1}
300053c4:	6c662064 	.word	0x6c662064
300053c8:	0a687361 	beq	31a22154 <end+0x1a1b7d0>
300053cc:	0000000d 	andeq	r0, r0, sp
300053d0:	205d715b 	.word	0x205d715b
300053d4:	74697571 	strbtvc	r7, [r9], #-1393
300053d8:	00000d0a 	andeq	r0, r0, sl, lsl #26
300053dc:	65746e45 	.word	0x65746e45
300053e0:	65732072 	ldrbvs	r2, [r3, #-114]!
300053e4:	7463656c 	strbtvc	r6, [r3], #-1388
300053e8:	3a6e6f69 	.word	0x3a6e6f69
300053ec:	00000020 	andeq	r0, r0, r0, lsr #32
300053f0:	0d0a6325 	stceq	3, cr6, [sl, #-148]
300053f4:	00000000 	.word	0x00000000
300053f8:	32633373 	rsbcc	r3, r3, #-872415231	; 0xcc000001
300053fc:	00303434 	eorseq	r3, r0, r4, lsr r4
30005400:	2e777777 	.word	0x2e777777
30005404:	61303031 	teqvs	r0, r1, lsr r0
30005408:	6e2e6b73 	vmovvs.16	d14[3], r6
3000540c:	0d0a7465 	.word	0x0d0a7465
30005410:	61303031 	teqvs	r0, r1, lsr r0
30005414:	742e6b73 	strtvc	r6, [lr], #-2931
30005418:	61626f61 	.word	0x61626f61
3000541c:	6f632e6f 	svcvs	0x00632e6f
30005420:	0000006d 	andeq	r0, r0, sp, rrx
30005424:	5f64636c 	.word	0x5f64636c
30005428:	00332e34 	eorseq	r2, r3, r4, lsr lr
3000542c:	5f64636c 	svcpl	0x0064636c
30005430:	00332e34 	eorseq	r2, r3, r4, lsr lr
30005434:	32633373 	rsbcc	r3, r3, #-872415231	; 0xcc000001
30005438:	00303434 	eorseq	r3, r0, r4, lsr r4

3000543c <fontdata_8x16>:
	...
3000544c:	817e0000 	.word	0x817e0000
30005450:	bd8181a5 	.word	0xbd8181a5
30005454:	7e818199 	.word	0x7e818199
30005458:	00000000 	.word	0x00000000
3000545c:	ff7e0000 	.word	0xff7e0000
30005460:	c3ffffdb 	.word	0xc3ffffdb
30005464:	7effffe7 	.word	0x7effffe7
	...
30005470:	fefefe6c 	.word	0xfefefe6c
30005474:	10387cfe 	.word	0x10387cfe
	...
30005480:	fe7c3810 	.word	0xfe7c3810
30005484:	0010387c 	.word	0x0010387c
30005488:	00000000 	.word	0x00000000
3000548c:	18000000 	.word	0x18000000
30005490:	e7e73c3c 	.word	0xe7e73c3c
30005494:	3c1818e7 	.word	0x3c1818e7
30005498:	00000000 	.word	0x00000000
3000549c:	18000000 	.word	0x18000000
300054a0:	ffff7e3c 	.word	0xffff7e3c
300054a4:	3c18187e 	.word	0x3c18187e
	...
300054b0:	3c180000 	.word	0x3c180000
300054b4:	0000183c 	.word	0x0000183c
300054b8:	00000000 	.word	0x00000000
300054bc:	ffffffff 	.word	0xffffffff
300054c0:	c3e7ffff 	.word	0xc3e7ffff
300054c4:	ffffe7c3 	.word	0xffffe7c3
300054c8:	ffffffff 	.word	0xffffffff
300054cc:	00000000 	.word	0x00000000
300054d0:	42663c00 	.word	0x42663c00
300054d4:	003c6642 	.word	0x003c6642
300054d8:	00000000 	.word	0x00000000
300054dc:	ffffffff 	.word	0xffffffff
300054e0:	bd99c3ff 	.word	0xbd99c3ff
300054e4:	ffc399bd 	.word	0xffc399bd
300054e8:	ffffffff 	.word	0xffffffff
300054ec:	0e1e0000 	.word	0x0e1e0000
300054f0:	cc78321a 	.word	0xcc78321a
300054f4:	78cccccc 	.word	0x78cccccc
300054f8:	00000000 	.word	0x00000000
300054fc:	663c0000 	.word	0x663c0000
30005500:	3c666666 	.word	0x3c666666
30005504:	18187e18 	.word	0x18187e18
30005508:	00000000 	.word	0x00000000
3000550c:	333f0000 	.word	0x333f0000
30005510:	3030303f 	.word	0x3030303f
30005514:	e0f07030 	.word	0xe0f07030
30005518:	00000000 	.word	0x00000000
3000551c:	637f0000 	.word	0x637f0000
30005520:	6363637f 	.word	0x6363637f
30005524:	e6e76763 	.word	0xe6e76763
30005528:	000000c0 	.word	0x000000c0
3000552c:	18000000 	.word	0x18000000
30005530:	e73cdb18 	.word	0xe73cdb18
30005534:	1818db3c 	.word	0x1818db3c
30005538:	00000000 	.word	0x00000000
3000553c:	e0c08000 	.word	0xe0c08000
30005540:	f8fef8f0 	.word	0xf8fef8f0
30005544:	80c0e0f0 	.word	0x80c0e0f0
30005548:	00000000 	.word	0x00000000
3000554c:	0e060200 	.word	0x0e060200
30005550:	3efe3e1e 	.word	0x3efe3e1e
30005554:	02060e1e 	.word	0x02060e1e
30005558:	00000000 	.word	0x00000000
3000555c:	3c180000 	.word	0x3c180000
30005560:	1818187e 	.word	0x1818187e
30005564:	00183c7e 	.word	0x00183c7e
30005568:	00000000 	.word	0x00000000
3000556c:	66660000 	.word	0x66660000
30005570:	66666666 	.word	0x66666666
30005574:	66660066 	.word	0x66660066
30005578:	00000000 	.word	0x00000000
3000557c:	db7f0000 	.word	0xdb7f0000
30005580:	1b7bdbdb 	.word	0x1b7bdbdb
30005584:	1b1b1b1b 	.word	0x1b1b1b1b
30005588:	00000000 	.word	0x00000000
3000558c:	60c67c00 	.word	0x60c67c00
30005590:	c6c66c38 	.word	0xc6c66c38
30005594:	c60c386c 	.word	0xc60c386c
30005598:	0000007c 	.word	0x0000007c
	...
300055a4:	fefefefe 	.word	0xfefefefe
300055a8:	00000000 	.word	0x00000000
300055ac:	3c180000 	.word	0x3c180000
300055b0:	1818187e 	.word	0x1818187e
300055b4:	7e183c7e 	.word	0x7e183c7e
300055b8:	00000000 	.word	0x00000000
300055bc:	3c180000 	.word	0x3c180000
300055c0:	1818187e 	.word	0x1818187e
300055c4:	18181818 	.word	0x18181818
300055c8:	00000000 	.word	0x00000000
300055cc:	18180000 	.word	0x18180000
300055d0:	18181818 	.word	0x18181818
300055d4:	183c7e18 	.word	0x183c7e18
	...
300055e0:	fe0c1800 	.word	0xfe0c1800
300055e4:	0000180c 	.word	0x0000180c
	...
300055f0:	fe603000 	.word	0xfe603000
300055f4:	00003060 	.word	0x00003060
	...
30005600:	c0c00000 	.word	0xc0c00000
30005604:	0000fec0 	.word	0x0000fec0
	...
30005610:	fe6c2800 	.word	0xfe6c2800
30005614:	0000286c 	.word	0x0000286c
	...
30005620:	7c383810 	.word	0x7c383810
30005624:	00fefe7c 	.word	0x00fefe7c
	...
30005630:	7c7cfefe 	.word	0x7c7cfefe
30005634:	00103838 	.word	0x00103838
	...
3000564c:	3c180000 	.word	0x3c180000
30005650:	18183c3c 	.word	0x18183c3c
30005654:	18180018 	.word	0x18180018
30005658:	00000000 	.word	0x00000000
3000565c:	66666600 	.word	0x66666600
30005660:	00000024 	.word	0x00000024
	...
3000566c:	6c000000 	.word	0x6c000000
30005670:	6c6cfe6c 	.word	0x6c6cfe6c
30005674:	6c6cfe6c 	.word	0x6c6cfe6c
30005678:	00000000 	.word	0x00000000
3000567c:	c67c1818 	.word	0xc67c1818
30005680:	067cc0c2 	.word	0x067cc0c2
30005684:	7cc68606 	.word	0x7cc68606
30005688:	00001818 	.word	0x00001818
3000568c:	00000000 	.word	0x00000000
30005690:	180cc6c2 	.word	0x180cc6c2
30005694:	86c66030 	.word	0x86c66030
30005698:	00000000 	.word	0x00000000
3000569c:	6c380000 	.word	0x6c380000
300056a0:	dc76386c 	.word	0xdc76386c
300056a4:	76cccccc 	.word	0x76cccccc
300056a8:	00000000 	.word	0x00000000
300056ac:	30303000 	.word	0x30303000
300056b0:	00000060 	.word	0x00000060
	...
300056bc:	180c0000 	.word	0x180c0000
300056c0:	30303030 	.word	0x30303030
300056c4:	0c183030 	.word	0x0c183030
300056c8:	00000000 	.word	0x00000000
300056cc:	18300000 	.word	0x18300000
300056d0:	0c0c0c0c 	.word	0x0c0c0c0c
300056d4:	30180c0c 	.word	0x30180c0c
	...
300056e0:	ff3c6600 	.word	0xff3c6600
300056e4:	0000663c 	.word	0x0000663c
	...
300056f0:	7e181800 	.word	0x7e181800
300056f4:	00001818 	.word	0x00001818
	...
30005704:	18181800 	.word	0x18181800
30005708:	00000030 	.word	0x00000030
3000570c:	00000000 	.word	0x00000000
30005710:	fe000000 	.word	0xfe000000
	...
30005724:	18180000 	.word	0x18180000
	...
30005730:	180c0602 	.word	0x180c0602
30005734:	80c06030 	.word	0x80c06030
30005738:	00000000 	.word	0x00000000
3000573c:	6c380000 	.word	0x6c380000
30005740:	d6d6c6c6 	.word	0xd6d6c6c6
30005744:	386cc6c6 	.word	0x386cc6c6
30005748:	00000000 	.word	0x00000000
3000574c:	38180000 	.word	0x38180000
30005750:	18181878 	.word	0x18181878
30005754:	7e181818 	.word	0x7e181818
30005758:	00000000 	.word	0x00000000
3000575c:	c67c0000 	.word	0xc67c0000
30005760:	30180c06 	.word	0x30180c06
30005764:	fec6c060 	.word	0xfec6c060
30005768:	00000000 	.word	0x00000000
3000576c:	c67c0000 	.word	0xc67c0000
30005770:	063c0606 	.word	0x063c0606
30005774:	7cc60606 	.word	0x7cc60606
30005778:	00000000 	.word	0x00000000
3000577c:	1c0c0000 	.word	0x1c0c0000
30005780:	fecc6c3c 	.word	0xfecc6c3c
30005784:	1e0c0c0c 	.word	0x1e0c0c0c
30005788:	00000000 	.word	0x00000000
3000578c:	c0fe0000 	.word	0xc0fe0000
30005790:	06fcc0c0 	.word	0x06fcc0c0
30005794:	7cc60606 	.word	0x7cc60606
30005798:	00000000 	.word	0x00000000
3000579c:	60380000 	.word	0x60380000
300057a0:	c6fcc0c0 	.word	0xc6fcc0c0
300057a4:	7cc6c6c6 	.word	0x7cc6c6c6
300057a8:	00000000 	.word	0x00000000
300057ac:	c6fe0000 	.word	0xc6fe0000
300057b0:	180c0606 	.word	0x180c0606
300057b4:	30303030 	.word	0x30303030
300057b8:	00000000 	.word	0x00000000
300057bc:	c67c0000 	.word	0xc67c0000
300057c0:	c67cc6c6 	.word	0xc67cc6c6
300057c4:	7cc6c6c6 	.word	0x7cc6c6c6
300057c8:	00000000 	.word	0x00000000
300057cc:	c67c0000 	.word	0xc67c0000
300057d0:	067ec6c6 	.word	0x067ec6c6
300057d4:	780c0606 	.word	0x780c0606
	...
300057e0:	00001818 	.word	0x00001818
300057e4:	00181800 	.word	0x00181800
	...
300057f0:	00001818 	.word	0x00001818
300057f4:	30181800 	.word	0x30181800
300057f8:	00000000 	.word	0x00000000
300057fc:	06000000 	.word	0x06000000
30005800:	6030180c 	.word	0x6030180c
30005804:	060c1830 	.word	0x060c1830
	...
30005810:	00007e00 	.word	0x00007e00
30005814:	0000007e 	.word	0x0000007e
30005818:	00000000 	.word	0x00000000
3000581c:	60000000 	.word	0x60000000
30005820:	060c1830 	.word	0x060c1830
30005824:	6030180c 	.word	0x6030180c
30005828:	00000000 	.word	0x00000000
3000582c:	c67c0000 	.word	0xc67c0000
30005830:	18180cc6 	.word	0x18180cc6
30005834:	18180018 	.word	0x18180018
30005838:	00000000 	.word	0x00000000
3000583c:	7c000000 	.word	0x7c000000
30005840:	dedec6c6 	.word	0xdedec6c6
30005844:	7cc0dcde 	.word	0x7cc0dcde
30005848:	00000000 	.word	0x00000000
3000584c:	38100000 	.word	0x38100000
30005850:	fec6c66c 	.word	0xfec6c66c
30005854:	c6c6c6c6 	.word	0xc6c6c6c6
30005858:	00000000 	.word	0x00000000
3000585c:	66fc0000 	.word	0x66fc0000
30005860:	667c6666 	.word	0x667c6666
30005864:	fc666666 	.word	0xfc666666
30005868:	00000000 	.word	0x00000000
3000586c:	663c0000 	.word	0x663c0000
30005870:	c0c0c0c2 	.word	0xc0c0c0c2
30005874:	3c66c2c0 	.word	0x3c66c2c0
30005878:	00000000 	.word	0x00000000
3000587c:	6cf80000 	.word	0x6cf80000
30005880:	66666666 	.word	0x66666666
30005884:	f86c6666 	.word	0xf86c6666
30005888:	00000000 	.word	0x00000000
3000588c:	66fe0000 	.word	0x66fe0000
30005890:	68786862 	.word	0x68786862
30005894:	fe666260 	.word	0xfe666260
30005898:	00000000 	.word	0x00000000
3000589c:	66fe0000 	.word	0x66fe0000
300058a0:	68786862 	.word	0x68786862
300058a4:	f0606060 	.word	0xf0606060
300058a8:	00000000 	.word	0x00000000
300058ac:	663c0000 	.word	0x663c0000
300058b0:	dec0c0c2 	.word	0xdec0c0c2
300058b4:	3a66c6c6 	.word	0x3a66c6c6
300058b8:	00000000 	.word	0x00000000
300058bc:	c6c60000 	.word	0xc6c60000
300058c0:	c6fec6c6 	.word	0xc6fec6c6
300058c4:	c6c6c6c6 	.word	0xc6c6c6c6
300058c8:	00000000 	.word	0x00000000
300058cc:	183c0000 	.word	0x183c0000
300058d0:	18181818 	.word	0x18181818
300058d4:	3c181818 	.word	0x3c181818
300058d8:	00000000 	.word	0x00000000
300058dc:	0c1e0000 	.word	0x0c1e0000
300058e0:	0c0c0c0c 	.word	0x0c0c0c0c
300058e4:	78cccccc 	.word	0x78cccccc
300058e8:	00000000 	.word	0x00000000
300058ec:	66e60000 	.word	0x66e60000
300058f0:	78786c66 	.word	0x78786c66
300058f4:	e666666c 	.word	0xe666666c
300058f8:	00000000 	.word	0x00000000
300058fc:	60f00000 	.word	0x60f00000
30005900:	60606060 	.word	0x60606060
30005904:	fe666260 	.word	0xfe666260
30005908:	00000000 	.word	0x00000000
3000590c:	eec60000 	.word	0xeec60000
30005910:	c6d6fefe 	.word	0xc6d6fefe
30005914:	c6c6c6c6 	.word	0xc6c6c6c6
30005918:	00000000 	.word	0x00000000
3000591c:	e6c60000 	.word	0xe6c60000
30005920:	cedefef6 	.word	0xcedefef6
30005924:	c6c6c6c6 	.word	0xc6c6c6c6
30005928:	00000000 	.word	0x00000000
3000592c:	c67c0000 	.word	0xc67c0000
30005930:	c6c6c6c6 	.word	0xc6c6c6c6
30005934:	7cc6c6c6 	.word	0x7cc6c6c6
30005938:	00000000 	.word	0x00000000
3000593c:	66fc0000 	.word	0x66fc0000
30005940:	607c6666 	.word	0x607c6666
30005944:	f0606060 	.word	0xf0606060
30005948:	00000000 	.word	0x00000000
3000594c:	c67c0000 	.word	0xc67c0000
30005950:	c6c6c6c6 	.word	0xc6c6c6c6
30005954:	7cded6c6 	.word	0x7cded6c6
30005958:	00000e0c 	.word	0x00000e0c
3000595c:	66fc0000 	.word	0x66fc0000
30005960:	6c7c6666 	.word	0x6c7c6666
30005964:	e6666666 	.word	0xe6666666
30005968:	00000000 	.word	0x00000000
3000596c:	c67c0000 	.word	0xc67c0000
30005970:	0c3860c6 	.word	0x0c3860c6
30005974:	7cc6c606 	.word	0x7cc6c606
30005978:	00000000 	.word	0x00000000
3000597c:	7e7e0000 	.word	0x7e7e0000
30005980:	1818185a 	.word	0x1818185a
30005984:	3c181818 	.word	0x3c181818
30005988:	00000000 	.word	0x00000000
3000598c:	c6c60000 	.word	0xc6c60000
30005990:	c6c6c6c6 	.word	0xc6c6c6c6
30005994:	7cc6c6c6 	.word	0x7cc6c6c6
30005998:	00000000 	.word	0x00000000
3000599c:	c6c60000 	.word	0xc6c60000
300059a0:	c6c6c6c6 	.word	0xc6c6c6c6
300059a4:	10386cc6 	.word	0x10386cc6
300059a8:	00000000 	.word	0x00000000
300059ac:	c6c60000 	.word	0xc6c60000
300059b0:	d6d6c6c6 	.word	0xd6d6c6c6
300059b4:	6ceefed6 	.word	0x6ceefed6
300059b8:	00000000 	.word	0x00000000
300059bc:	c6c60000 	.word	0xc6c60000
300059c0:	38387c6c 	.word	0x38387c6c
300059c4:	c6c66c7c 	.word	0xc6c66c7c
300059c8:	00000000 	.word	0x00000000
300059cc:	66660000 	.word	0x66660000
300059d0:	183c6666 	.word	0x183c6666
300059d4:	3c181818 	.word	0x3c181818
300059d8:	00000000 	.word	0x00000000
300059dc:	c6fe0000 	.word	0xc6fe0000
300059e0:	30180c86 	.word	0x30180c86
300059e4:	fec6c260 	.word	0xfec6c260
300059e8:	00000000 	.word	0x00000000
300059ec:	303c0000 	.word	0x303c0000
300059f0:	30303030 	.word	0x30303030
300059f4:	3c303030 	.word	0x3c303030
300059f8:	00000000 	.word	0x00000000
300059fc:	80000000 	.word	0x80000000
30005a00:	3870e0c0 	.word	0x3870e0c0
30005a04:	02060e1c 	.word	0x02060e1c
30005a08:	00000000 	.word	0x00000000
30005a0c:	0c3c0000 	.word	0x0c3c0000
30005a10:	0c0c0c0c 	.word	0x0c0c0c0c
30005a14:	3c0c0c0c 	.word	0x3c0c0c0c
30005a18:	00000000 	.word	0x00000000
30005a1c:	c66c3810 	.word	0xc66c3810
	...
30005a38:	0000ff00 	.word	0x0000ff00
30005a3c:	0c183000 	.word	0x0c183000
	...
30005a50:	7c0c7800 	.word	0x7c0c7800
30005a54:	76cccccc 	.word	0x76cccccc
30005a58:	00000000 	.word	0x00000000
30005a5c:	60e00000 	.word	0x60e00000
30005a60:	666c7860 	.word	0x666c7860
30005a64:	7c666666 	.word	0x7c666666
	...
30005a70:	c0c67c00 	.word	0xc0c67c00
30005a74:	7cc6c0c0 	.word	0x7cc6c0c0
30005a78:	00000000 	.word	0x00000000
30005a7c:	0c1c0000 	.word	0x0c1c0000
30005a80:	cc6c3c0c 	.word	0xcc6c3c0c
30005a84:	76cccccc 	.word	0x76cccccc
	...
30005a90:	fec67c00 	.word	0xfec67c00
30005a94:	7cc6c0c0 	.word	0x7cc6c0c0
30005a98:	00000000 	.word	0x00000000
30005a9c:	361c0000 	.word	0x361c0000
30005aa0:	30783032 	.word	0x30783032
30005aa4:	78303030 	.word	0x78303030
	...
30005ab0:	cccc7600 	.word	0xcccc7600
30005ab4:	7ccccccc 	.word	0x7ccccccc
30005ab8:	0078cc0c 	.word	0x0078cc0c
30005abc:	60e00000 	.word	0x60e00000
30005ac0:	66766c60 	.word	0x66766c60
30005ac4:	e6666666 	.word	0xe6666666
30005ac8:	00000000 	.word	0x00000000
30005acc:	18180000 	.word	0x18180000
30005ad0:	18183800 	.word	0x18183800
30005ad4:	3c181818 	.word	0x3c181818
30005ad8:	00000000 	.word	0x00000000
30005adc:	06060000 	.word	0x06060000
30005ae0:	06060e00 	.word	0x06060e00
30005ae4:	06060606 	.word	0x06060606
30005ae8:	003c6666 	.word	0x003c6666
30005aec:	60e00000 	.word	0x60e00000
30005af0:	786c6660 	.word	0x786c6660
30005af4:	e6666c78 	.word	0xe6666c78
30005af8:	00000000 	.word	0x00000000
30005afc:	18380000 	.word	0x18380000
30005b00:	18181818 	.word	0x18181818
30005b04:	3c181818 	.word	0x3c181818
	...
30005b10:	d6feec00 	.word	0xd6feec00
30005b14:	c6d6d6d6 	.word	0xc6d6d6d6
	...
30005b20:	6666dc00 	.word	0x6666dc00
30005b24:	66666666 	.word	0x66666666
	...
30005b30:	c6c67c00 	.word	0xc6c67c00
30005b34:	7cc6c6c6 	.word	0x7cc6c6c6
	...
30005b40:	6666dc00 	.word	0x6666dc00
30005b44:	7c666666 	.word	0x7c666666
30005b48:	00f06060 	.word	0x00f06060
30005b4c:	00000000 	.word	0x00000000
30005b50:	cccc7600 	.word	0xcccc7600
30005b54:	7ccccccc 	.word	0x7ccccccc
30005b58:	001e0c0c 	.word	0x001e0c0c
30005b5c:	00000000 	.word	0x00000000
30005b60:	6676dc00 	.word	0x6676dc00
30005b64:	f0606060 	.word	0xf0606060
	...
30005b70:	60c67c00 	.word	0x60c67c00
30005b74:	7cc60c38 	.word	0x7cc60c38
30005b78:	00000000 	.word	0x00000000
30005b7c:	30100000 	.word	0x30100000
30005b80:	3030fc30 	.word	0x3030fc30
30005b84:	1c363030 	.word	0x1c363030
	...
30005b90:	cccccc00 	.word	0xcccccc00
30005b94:	76cccccc 	.word	0x76cccccc
	...
30005ba0:	c6c6c600 	.word	0xc6c6c600
30005ba4:	386cc6c6 	.word	0x386cc6c6
	...
30005bb0:	d6c6c600 	.word	0xd6c6c600
30005bb4:	6cfed6d6 	.word	0x6cfed6d6
	...
30005bc0:	386cc600 	.word	0x386cc600
30005bc4:	c66c3838 	.word	0xc66c3838
	...
30005bd0:	c6c6c600 	.word	0xc6c6c600
30005bd4:	7ec6c6c6 	.word	0x7ec6c6c6
30005bd8:	00f80c06 	.word	0x00f80c06
30005bdc:	00000000 	.word	0x00000000
30005be0:	18ccfe00 	.word	0x18ccfe00
30005be4:	fec66030 	.word	0xfec66030
30005be8:	00000000 	.word	0x00000000
30005bec:	180e0000 	.word	0x180e0000
30005bf0:	18701818 	.word	0x18701818
30005bf4:	0e181818 	.word	0x0e181818
30005bf8:	00000000 	.word	0x00000000
30005bfc:	18180000 	.word	0x18180000
30005c00:	18181818 	.word	0x18181818
30005c04:	18181818 	.word	0x18181818
30005c08:	00000000 	.word	0x00000000
30005c0c:	18700000 	.word	0x18700000
30005c10:	180e1818 	.word	0x180e1818
30005c14:	70181818 	.word	0x70181818
30005c18:	00000000 	.word	0x00000000
30005c1c:	00dc7600 	.word	0x00dc7600
	...
30005c30:	c66c3810 	.word	0xc66c3810
30005c34:	00fec6c6 	.word	0x00fec6c6
30005c38:	00000000 	.word	0x00000000
30005c3c:	663c0000 	.word	0x663c0000
30005c40:	c0c0c0c2 	.word	0xc0c0c0c2
30005c44:	3c66c2c0 	.word	0x3c66c2c0
30005c48:	00007018 	.word	0x00007018
30005c4c:	00cc0000 	.word	0x00cc0000
30005c50:	cccccc00 	.word	0xcccccc00
30005c54:	76cccccc 	.word	0x76cccccc
30005c58:	00000000 	.word	0x00000000
30005c5c:	30180c00 	.word	0x30180c00
30005c60:	fec67c00 	.word	0xfec67c00
30005c64:	7cc6c0c0 	.word	0x7cc6c0c0
30005c68:	00000000 	.word	0x00000000
30005c6c:	6c381000 	.word	0x6c381000
30005c70:	7c0c7800 	.word	0x7c0c7800
30005c74:	76cccccc 	.word	0x76cccccc
30005c78:	00000000 	.word	0x00000000
30005c7c:	00cc0000 	.word	0x00cc0000
30005c80:	7c0c7800 	.word	0x7c0c7800
30005c84:	76cccccc 	.word	0x76cccccc
30005c88:	00000000 	.word	0x00000000
30005c8c:	18306000 	.word	0x18306000
30005c90:	7c0c7800 	.word	0x7c0c7800
30005c94:	76cccccc 	.word	0x76cccccc
30005c98:	00000000 	.word	0x00000000
30005c9c:	386c3800 	.word	0x386c3800
30005ca0:	7c0c7800 	.word	0x7c0c7800
30005ca4:	76cccccc 	.word	0x76cccccc
	...
30005cb0:	c0c67c00 	.word	0xc0c67c00
30005cb4:	7cc6c0c0 	.word	0x7cc6c0c0
30005cb8:	00007018 	.word	0x00007018
30005cbc:	6c381000 	.word	0x6c381000
30005cc0:	fec67c00 	.word	0xfec67c00
30005cc4:	7cc6c0c0 	.word	0x7cc6c0c0
30005cc8:	00000000 	.word	0x00000000
30005ccc:	00c60000 	.word	0x00c60000
30005cd0:	fec67c00 	.word	0xfec67c00
30005cd4:	7cc6c0c0 	.word	0x7cc6c0c0
30005cd8:	00000000 	.word	0x00000000
30005cdc:	18306000 	.word	0x18306000
30005ce0:	fec67c00 	.word	0xfec67c00
30005ce4:	7cc6c0c0 	.word	0x7cc6c0c0
30005ce8:	00000000 	.word	0x00000000
30005cec:	00660000 	.word	0x00660000
30005cf0:	18183800 	.word	0x18183800
30005cf4:	3c181818 	.word	0x3c181818
30005cf8:	00000000 	.word	0x00000000
30005cfc:	663c1800 	.word	0x663c1800
30005d00:	18183800 	.word	0x18183800
30005d04:	3c181818 	.word	0x3c181818
30005d08:	00000000 	.word	0x00000000
30005d0c:	18306000 	.word	0x18306000
30005d10:	18183800 	.word	0x18183800
30005d14:	3c181818 	.word	0x3c181818
30005d18:	00000000 	.word	0x00000000
30005d1c:	1000c600 	.word	0x1000c600
30005d20:	c6c66c38 	.word	0xc6c66c38
30005d24:	c6c6c6fe 	.word	0xc6c6c6fe
30005d28:	00000000 	.word	0x00000000
30005d2c:	10386c38 	.word	0x10386c38
30005d30:	fec66c38 	.word	0xfec66c38
30005d34:	c6c6c6c6 	.word	0xc6c6c6c6
30005d38:	00000000 	.word	0x00000000
30005d3c:	fe00180c 	.word	0xfe00180c
30005d40:	78686266 	.word	0x78686266
30005d44:	fe666268 	.word	0xfe666268
	...
30005d50:	3636ec00 	.word	0x3636ec00
30005d54:	6ed8d87e 	.word	0x6ed8d87e
30005d58:	00000000 	.word	0x00000000
30005d5c:	6c3e0000 	.word	0x6c3e0000
30005d60:	ccfecccc 	.word	0xccfecccc
30005d64:	cecccccc 	.word	0xcecccccc
30005d68:	00000000 	.word	0x00000000
30005d6c:	6c381000 	.word	0x6c381000
30005d70:	c6c67c00 	.word	0xc6c67c00
30005d74:	7cc6c6c6 	.word	0x7cc6c6c6
30005d78:	00000000 	.word	0x00000000
30005d7c:	00c60000 	.word	0x00c60000
30005d80:	c6c67c00 	.word	0xc6c67c00
30005d84:	7cc6c6c6 	.word	0x7cc6c6c6
30005d88:	00000000 	.word	0x00000000
30005d8c:	18306000 	.word	0x18306000
30005d90:	c6c67c00 	.word	0xc6c67c00
30005d94:	7cc6c6c6 	.word	0x7cc6c6c6
30005d98:	00000000 	.word	0x00000000
30005d9c:	cc783000 	.word	0xcc783000
30005da0:	cccccc00 	.word	0xcccccc00
30005da4:	76cccccc 	.word	0x76cccccc
30005da8:	00000000 	.word	0x00000000
30005dac:	18306000 	.word	0x18306000
30005db0:	cccccc00 	.word	0xcccccc00
30005db4:	76cccccc 	.word	0x76cccccc
30005db8:	00000000 	.word	0x00000000
30005dbc:	00c60000 	.word	0x00c60000
30005dc0:	c6c6c600 	.word	0xc6c6c600
30005dc4:	7ec6c6c6 	.word	0x7ec6c6c6
30005dc8:	00780c06 	.word	0x00780c06
30005dcc:	7c00c600 	.word	0x7c00c600
30005dd0:	c6c6c6c6 	.word	0xc6c6c6c6
30005dd4:	7cc6c6c6 	.word	0x7cc6c6c6
30005dd8:	00000000 	.word	0x00000000
30005ddc:	c600c600 	.word	0xc600c600
30005de0:	c6c6c6c6 	.word	0xc6c6c6c6
30005de4:	7cc6c6c6 	.word	0x7cc6c6c6
30005de8:	00000000 	.word	0x00000000
30005dec:	7c181800 	.word	0x7c181800
30005df0:	c0c0c0c6 	.word	0xc0c0c0c6
30005df4:	18187cc6 	.word	0x18187cc6
30005df8:	00000000 	.word	0x00000000
30005dfc:	646c3800 	.word	0x646c3800
30005e00:	6060f060 	.word	0x6060f060
30005e04:	fce66060 	.word	0xfce66060
30005e08:	00000000 	.word	0x00000000
30005e0c:	66660000 	.word	0x66660000
30005e10:	187e183c 	.word	0x187e183c
30005e14:	1818187e 	.word	0x1818187e
30005e18:	00000000 	.word	0x00000000
30005e1c:	ccccf800 	.word	0xccccf800
30005e20:	deccc4f8 	.word	0xdeccc4f8
30005e24:	c6cccccc 	.word	0xc6cccccc
30005e28:	00000000 	.word	0x00000000
30005e2c:	181b0e00 	.word	0x181b0e00
30005e30:	187e1818 	.word	0x187e1818
30005e34:	70d81818 	.word	0x70d81818
30005e38:	00000000 	.word	0x00000000
30005e3c:	60301800 	.word	0x60301800
30005e40:	7c0c7800 	.word	0x7c0c7800
30005e44:	76cccccc 	.word	0x76cccccc
30005e48:	00000000 	.word	0x00000000
30005e4c:	30180c00 	.word	0x30180c00
30005e50:	18183800 	.word	0x18183800
30005e54:	3c181818 	.word	0x3c181818
30005e58:	00000000 	.word	0x00000000
30005e5c:	60301800 	.word	0x60301800
30005e60:	c6c67c00 	.word	0xc6c67c00
30005e64:	7cc6c6c6 	.word	0x7cc6c6c6
30005e68:	00000000 	.word	0x00000000
30005e6c:	60301800 	.word	0x60301800
30005e70:	cccccc00 	.word	0xcccccc00
30005e74:	76cccccc 	.word	0x76cccccc
30005e78:	00000000 	.word	0x00000000
30005e7c:	dc760000 	.word	0xdc760000
30005e80:	6666dc00 	.word	0x6666dc00
30005e84:	66666666 	.word	0x66666666
30005e88:	00000000 	.word	0x00000000
30005e8c:	c600dc76 	.word	0xc600dc76
30005e90:	defef6e6 	.word	0xdefef6e6
30005e94:	c6c6c6ce 	.word	0xc6c6c6ce
30005e98:	00000000 	.word	0x00000000
30005e9c:	6c3c0000 	.word	0x6c3c0000
30005ea0:	7e003e6c 	.word	0x7e003e6c
	...
30005eac:	6c380000 	.word	0x6c380000
30005eb0:	7c00386c 	.word	0x7c00386c
	...
30005ebc:	30300000 	.word	0x30300000
30005ec0:	60303000 	.word	0x60303000
30005ec4:	7cc6c6c0 	.word	0x7cc6c6c0
	...
30005ed0:	c0fe0000 	.word	0xc0fe0000
30005ed4:	00c0c0c0 	.word	0x00c0c0c0
	...
30005ee0:	06fe0000 	.word	0x06fe0000
30005ee4:	00060606 	.word	0x00060606
30005ee8:	00000000 	.word	0x00000000
30005eec:	62e06000 	.word	0x62e06000
30005ef0:	30186c66 	.word	0x30186c66
30005ef4:	0c86dc60 	.word	0x0c86dc60
30005ef8:	00003e18 	.word	0x00003e18
30005efc:	62e06000 	.word	0x62e06000
30005f00:	30186c66 	.word	0x30186c66
30005f04:	3f9ace66 	.word	0x3f9ace66
30005f08:	00000606 	.word	0x00000606
30005f0c:	18180000 	.word	0x18180000
30005f10:	18181800 	.word	0x18181800
30005f14:	183c3c3c 	.word	0x183c3c3c
	...
30005f20:	d86c3600 	.word	0xd86c3600
30005f24:	0000366c 	.word	0x0000366c
	...
30005f30:	366cd800 	.word	0x366cd800
30005f34:	0000d86c 	.word	0x0000d86c
30005f38:	00000000 	.word	0x00000000
30005f3c:	44114411 	.word	0x44114411
30005f40:	44114411 	.word	0x44114411
30005f44:	44114411 	.word	0x44114411
30005f48:	44114411 	.word	0x44114411
30005f4c:	aa55aa55 	.word	0xaa55aa55
30005f50:	aa55aa55 	.word	0xaa55aa55
30005f54:	aa55aa55 	.word	0xaa55aa55
30005f58:	aa55aa55 	.word	0xaa55aa55
30005f5c:	77dd77dd 	.word	0x77dd77dd
30005f60:	77dd77dd 	.word	0x77dd77dd
30005f64:	77dd77dd 	.word	0x77dd77dd
30005f68:	77dd77dd 	.word	0x77dd77dd
30005f6c:	18181818 	.word	0x18181818
30005f70:	18181818 	.word	0x18181818
30005f74:	18181818 	.word	0x18181818
30005f78:	18181818 	.word	0x18181818
30005f7c:	18181818 	.word	0x18181818
30005f80:	f8181818 	.word	0xf8181818
30005f84:	18181818 	.word	0x18181818
30005f88:	18181818 	.word	0x18181818
30005f8c:	18181818 	.word	0x18181818
30005f90:	f818f818 	.word	0xf818f818
30005f94:	18181818 	.word	0x18181818
30005f98:	18181818 	.word	0x18181818
30005f9c:	36363636 	.word	0x36363636
30005fa0:	f6363636 	.word	0xf6363636
30005fa4:	36363636 	.word	0x36363636
30005fa8:	36363636 	.word	0x36363636
30005fac:	00000000 	.word	0x00000000
30005fb0:	fe000000 	.word	0xfe000000
30005fb4:	36363636 	.word	0x36363636
30005fb8:	36363636 	.word	0x36363636
30005fbc:	00000000 	.word	0x00000000
30005fc0:	f818f800 	.word	0xf818f800
30005fc4:	18181818 	.word	0x18181818
30005fc8:	18181818 	.word	0x18181818
30005fcc:	36363636 	.word	0x36363636
30005fd0:	f606f636 	.word	0xf606f636
30005fd4:	36363636 	.word	0x36363636
30005fd8:	36363636 	.word	0x36363636
30005fdc:	36363636 	.word	0x36363636
30005fe0:	36363636 	.word	0x36363636
30005fe4:	36363636 	.word	0x36363636
30005fe8:	36363636 	.word	0x36363636
30005fec:	00000000 	.word	0x00000000
30005ff0:	f606fe00 	.word	0xf606fe00
30005ff4:	36363636 	.word	0x36363636
30005ff8:	36363636 	.word	0x36363636
30005ffc:	36363636 	.word	0x36363636
30006000:	fe06f636 	.word	0xfe06f636
	...
3000600c:	36363636 	.word	0x36363636
30006010:	fe363636 	.word	0xfe363636
	...
3000601c:	18181818 	.word	0x18181818
30006020:	f818f818 	.word	0xf818f818
	...
30006030:	f8000000 	.word	0xf8000000
30006034:	18181818 	.word	0x18181818
30006038:	18181818 	.word	0x18181818
3000603c:	18181818 	.word	0x18181818
30006040:	1f181818 	.word	0x1f181818
	...
3000604c:	18181818 	.word	0x18181818
30006050:	ff181818 	.word	0xff181818
	...
30006060:	ff000000 	.word	0xff000000
30006064:	18181818 	.word	0x18181818
30006068:	18181818 	.word	0x18181818
3000606c:	18181818 	.word	0x18181818
30006070:	1f181818 	.word	0x1f181818
30006074:	18181818 	.word	0x18181818
30006078:	18181818 	.word	0x18181818
3000607c:	00000000 	.word	0x00000000
30006080:	ff000000 	.word	0xff000000
	...
3000608c:	18181818 	.word	0x18181818
30006090:	ff181818 	.word	0xff181818
30006094:	18181818 	.word	0x18181818
30006098:	18181818 	.word	0x18181818
3000609c:	18181818 	.word	0x18181818
300060a0:	1f181f18 	.word	0x1f181f18
300060a4:	18181818 	.word	0x18181818
300060a8:	18181818 	.word	0x18181818
300060ac:	36363636 	.word	0x36363636
300060b0:	37363636 	.word	0x37363636
300060b4:	36363636 	.word	0x36363636
300060b8:	36363636 	.word	0x36363636
300060bc:	36363636 	.word	0x36363636
300060c0:	3f303736 	.word	0x3f303736
	...
300060d0:	37303f00 	.word	0x37303f00
300060d4:	36363636 	.word	0x36363636
300060d8:	36363636 	.word	0x36363636
300060dc:	36363636 	.word	0x36363636
300060e0:	ff00f736 	.word	0xff00f736
	...
300060f0:	f700ff00 	.word	0xf700ff00
300060f4:	36363636 	.word	0x36363636
300060f8:	36363636 	.word	0x36363636
300060fc:	36363636 	.word	0x36363636
30006100:	37303736 	.word	0x37303736
30006104:	36363636 	.word	0x36363636
30006108:	36363636 	.word	0x36363636
3000610c:	00000000 	.word	0x00000000
30006110:	ff00ff00 	.word	0xff00ff00
	...
3000611c:	36363636 	.word	0x36363636
30006120:	f700f736 	.word	0xf700f736
30006124:	36363636 	.word	0x36363636
30006128:	36363636 	.word	0x36363636
3000612c:	18181818 	.word	0x18181818
30006130:	ff00ff18 	.word	0xff00ff18
	...
3000613c:	36363636 	.word	0x36363636
30006140:	ff363636 	.word	0xff363636
	...
30006150:	ff00ff00 	.word	0xff00ff00
30006154:	18181818 	.word	0x18181818
30006158:	18181818 	.word	0x18181818
3000615c:	00000000 	.word	0x00000000
30006160:	ff000000 	.word	0xff000000
30006164:	36363636 	.word	0x36363636
30006168:	36363636 	.word	0x36363636
3000616c:	36363636 	.word	0x36363636
30006170:	3f363636 	.word	0x3f363636
	...
3000617c:	18181818 	.word	0x18181818
30006180:	1f181f18 	.word	0x1f181f18
	...
30006190:	1f181f00 	.word	0x1f181f00
30006194:	18181818 	.word	0x18181818
30006198:	18181818 	.word	0x18181818
3000619c:	00000000 	.word	0x00000000
300061a0:	3f000000 	.word	0x3f000000
300061a4:	36363636 	.word	0x36363636
300061a8:	36363636 	.word	0x36363636
300061ac:	36363636 	.word	0x36363636
300061b0:	ff363636 	.word	0xff363636
300061b4:	36363636 	.word	0x36363636
300061b8:	36363636 	.word	0x36363636
300061bc:	18181818 	.word	0x18181818
300061c0:	ff18ff18 	.word	0xff18ff18
300061c4:	18181818 	.word	0x18181818
300061c8:	18181818 	.word	0x18181818
300061cc:	18181818 	.word	0x18181818
300061d0:	f8181818 	.word	0xf8181818
	...
300061e0:	1f000000 	.word	0x1f000000
300061e4:	18181818 	.word	0x18181818
300061e8:	18181818 	.word	0x18181818
300061ec:	ffffffff 	.word	0xffffffff
300061f0:	ffffffff 	.word	0xffffffff
300061f4:	ffffffff 	.word	0xffffffff
300061f8:	ffffffff 	.word	0xffffffff
300061fc:	00000000 	.word	0x00000000
30006200:	ff000000 	.word	0xff000000
30006204:	ffffffff 	.word	0xffffffff
30006208:	ffffffff 	.word	0xffffffff
3000620c:	f0f0f0f0 	.word	0xf0f0f0f0
30006210:	f0f0f0f0 	.word	0xf0f0f0f0
30006214:	f0f0f0f0 	.word	0xf0f0f0f0
30006218:	f0f0f0f0 	.word	0xf0f0f0f0
3000621c:	0f0f0f0f 	.word	0x0f0f0f0f
30006220:	0f0f0f0f 	.word	0x0f0f0f0f
30006224:	0f0f0f0f 	.word	0x0f0f0f0f
30006228:	0f0f0f0f 	.word	0x0f0f0f0f
3000622c:	ffffffff 	.word	0xffffffff
30006230:	00ffffff 	.word	0x00ffffff
	...
30006240:	d8dc7600 	.word	0xd8dc7600
30006244:	76dcd8d8 	.word	0x76dcd8d8
30006248:	00000000 	.word	0x00000000
3000624c:	cc780000 	.word	0xcc780000
30006250:	ccd8cccc 	.word	0xccd8cccc
30006254:	ccc6c6c6 	.word	0xccc6c6c6
30006258:	00000000 	.word	0x00000000
3000625c:	c6fe0000 	.word	0xc6fe0000
30006260:	c0c0c0c6 	.word	0xc0c0c0c6
30006264:	c0c0c0c0 	.word	0xc0c0c0c0
	...
30006270:	6c6cfe00 	.word	0x6c6cfe00
30006274:	6c6c6c6c 	.word	0x6c6c6c6c
30006278:	00000000 	.word	0x00000000
3000627c:	c6fe0000 	.word	0xc6fe0000
30006280:	18183060 	.word	0x18183060
30006284:	fec66030 	.word	0xfec66030
	...
30006290:	d8d87e00 	.word	0xd8d87e00
30006294:	70d8d8d8 	.word	0x70d8d8d8
	...
300062a0:	66666600 	.word	0x66666600
300062a4:	7c666666 	.word	0x7c666666
300062a8:	00c06060 	.word	0x00c06060
300062ac:	00000000 	.word	0x00000000
300062b0:	1818dc76 	.word	0x1818dc76
300062b4:	18181818 	.word	0x18181818
300062b8:	00000000 	.word	0x00000000
300062bc:	187e0000 	.word	0x187e0000
300062c0:	6666663c 	.word	0x6666663c
300062c4:	7e183c66 	.word	0x7e183c66
300062c8:	00000000 	.word	0x00000000
300062cc:	6c380000 	.word	0x6c380000
300062d0:	c6fec6c6 	.word	0xc6fec6c6
300062d4:	386cc6c6 	.word	0x386cc6c6
300062d8:	00000000 	.word	0x00000000
300062dc:	6c380000 	.word	0x6c380000
300062e0:	6cc6c6c6 	.word	0x6cc6c6c6
300062e4:	ee6c6c6c 	.word	0xee6c6c6c
300062e8:	00000000 	.word	0x00000000
300062ec:	301e0000 	.word	0x301e0000
300062f0:	663e0c18 	.word	0x663e0c18
300062f4:	3c666666 	.word	0x3c666666
	...
30006300:	dbdb7e00 	.word	0xdbdb7e00
30006304:	00007edb 	.word	0x00007edb
30006308:	00000000 	.word	0x00000000
3000630c:	03000000 	.word	0x03000000
30006310:	dbdb7e06 	.word	0xdbdb7e06
30006314:	c0607ef3 	.word	0xc0607ef3
30006318:	00000000 	.word	0x00000000
3000631c:	301c0000 	.word	0x301c0000
30006320:	607c6060 	.word	0x607c6060
30006324:	1c306060 	.word	0x1c306060
30006328:	00000000 	.word	0x00000000
3000632c:	7c000000 	.word	0x7c000000
30006330:	c6c6c6c6 	.word	0xc6c6c6c6
30006334:	c6c6c6c6 	.word	0xc6c6c6c6
	...
30006340:	fe0000fe 	.word	0xfe0000fe
30006344:	00fe0000 	.word	0x00fe0000
	...
30006350:	187e1818 	.word	0x187e1818
30006354:	7e000018 	.word	0x7e000018
30006358:	00000000 	.word	0x00000000
3000635c:	30000000 	.word	0x30000000
30006360:	0c060c18 	.word	0x0c060c18
30006364:	7e003018 	.word	0x7e003018
30006368:	00000000 	.word	0x00000000
3000636c:	0c000000 	.word	0x0c000000
30006370:	30603018 	.word	0x30603018
30006374:	7e000c18 	.word	0x7e000c18
30006378:	00000000 	.word	0x00000000
3000637c:	1b0e0000 	.word	0x1b0e0000
30006380:	1818181b 	.word	0x1818181b
30006384:	18181818 	.word	0x18181818
30006388:	18181818 	.word	0x18181818
3000638c:	18181818 	.word	0x18181818
30006390:	18181818 	.word	0x18181818
30006394:	d8d8d818 	.word	0xd8d8d818
30006398:	00000070 	.word	0x00000070
3000639c:	00000000 	.word	0x00000000
300063a0:	7e001800 	.word	0x7e001800
300063a4:	00001800 	.word	0x00001800
	...
300063b0:	00dc7600 	.word	0x00dc7600
300063b4:	0000dc76 	.word	0x0000dc76
300063b8:	00000000 	.word	0x00000000
300063bc:	6c6c3800 	.word	0x6c6c3800
300063c0:	00000038 	.word	0x00000038
	...
300063d0:	18000000 	.word	0x18000000
300063d4:	00000018 	.word	0x00000018
	...
300063e0:	18000000 	.word	0x18000000
	...
300063ec:	0c0c0f00 	.word	0x0c0c0f00
300063f0:	ec0c0c0c 	.word	0xec0c0c0c
300063f4:	1c3c6c6c 	.word	0x1c3c6c6c
300063f8:	00000000 	.word	0x00000000
300063fc:	36366c00 	.word	0x36366c00
30006400:	00363636 	.word	0x00363636
	...
3000640c:	0c663c00 	.word	0x0c663c00
30006410:	007e3218 	.word	0x007e3218
	...
30006420:	7e7e7e7e 	.word	0x7e7e7e7e
30006424:	007e7e7e 	.word	0x007e7e7e
	...
3000643c:	20727473 	.word	0x20727473
30006440:	7325203d 	.word	0x7325203d
30006444:	00000d0a 	.word	0x00000d0a
30006448:	646e6576 	.word	0x646e6576
3000644c:	6920726f 	.word	0x6920726f
30006450:	203d2064 	.word	0x203d2064
30006454:	78257830 	.word	0x78257830
30006458:	6564202c 	.word	0x6564202c
3000645c:	65636976 	.word	0x65636976
30006460:	20646920 	.word	0x20646920
30006464:	7830203d 	.word	0x7830203d
30006468:	202c7825 	.word	0x202c7825
3000646c:	20726f6e 	.word	0x20726f6e
30006470:	657a6973 	.word	0x657a6973
30006474:	30203d20 	.word	0x30203d20
30006478:	2c782578 	.word	0x2c782578
3000647c:	4d642520 	.word	0x4d642520
30006480:	00000d0a 	.word	0x00000d0a
30006484:	636f6c42 	.word	0x636f6c42
30006488:	65532f6b 	.word	0x65532f6b
3000648c:	726f7463 	.word	0x726f7463
30006490:	61747320 	.word	0x61747320
30006494:	41207472 	.word	0x41207472
30006498:	65726464 	.word	0x65726464
3000649c:	0a3a7373 	.word	0x0a3a7373
300064a0:	0000000d 	.word	0x0000000d
300064a4:	00000d0a 	.word	0x00000d0a
300064a8:	65746e45 	.word	0x65746e45
300064ac:	68742072 	.word	0x68742072
300064b0:	64612065 	.word	0x64612065
300064b4:	73657264 	.word	0x73657264
300064b8:	666f2073 	.word	0x666f2073
300064bc:	63657320 	.word	0x63657320
300064c0:	20726f74 	.word	0x20726f74
300064c4:	65206f74 	.word	0x65206f74
300064c8:	65736172 	.word	0x65736172
300064cc:	0000203a 	.word	0x0000203a
300064d0:	73617265 	.word	0x73617265
300064d4:	20676e69 	.word	0x20676e69
300064d8:	0a2e2e2e 	.word	0x0a2e2e2e
300064dc:	0000000d 	.word	0x0000000d
300064e0:	65746e45 	.word	0x65746e45
300064e4:	68742072 	.word	0x68742072
300064e8:	64612065 	.word	0x64612065
300064ec:	73657264 	.word	0x73657264
300064f0:	666f2073 	.word	0x666f2073
300064f4:	63657320 	.word	0x63657320
300064f8:	20726f74 	.word	0x20726f74
300064fc:	77206f74 	.word	0x77206f74
30006500:	65746972 	.word	0x65746972
30006504:	0000203a 	.word	0x0000203a
30006508:	65746e45 	.word	0x65746e45
3000650c:	68742072 	.word	0x68742072
30006510:	74732065 	.word	0x74732065
30006514:	676e6972 	.word	0x676e6972
30006518:	206f7420 	.word	0x206f7420
3000651c:	74697277 	.word	0x74697277
30006520:	00203a65 	.word	0x00203a65
30006524:	74697277 	.word	0x74697277
30006528:	20676e69 	.word	0x20676e69
3000652c:	0a2e2e2e 	.word	0x0a2e2e2e
30006530:	0000000d 	.word	0x0000000d
30006534:	65746e45 	.word	0x65746e45
30006538:	68742072 	.word	0x68742072
3000653c:	64612065 	.word	0x64612065
30006540:	73657264 	.word	0x73657264
30006544:	6f742073 	.word	0x6f742073
30006548:	61657220 	.word	0x61657220
3000654c:	00203a64 	.word	0x00203a64
30006550:	61746144 	.word	0x61746144
30006554:	0a203a20 	.word	0x0a203a20
30006558:	0000000d 	.word	0x0000000d
3000655c:	78323025 	.word	0x78323025
30006560:	00000020 	.word	0x00000020
30006564:	3b202020 	.word	0x3b202020
30006568:	00000020 	.word	0x00000020
3000656c:	205d735b 	.word	0x205d735b
30006570:	6e616353 	.word	0x6e616353
30006574:	726f6e20 	.word	0x726f6e20
30006578:	616c6620 	.word	0x616c6620
3000657c:	0d0a6873 	.word	0x0d0a6873
30006580:	00000000 	.word	0x00000000
30006584:	205d655b 	.word	0x205d655b
30006588:	73617245 	.word	0x73617245
3000658c:	6f6e2065 	.word	0x6f6e2065
30006590:	6c662072 	.word	0x6c662072
30006594:	0a687361 	.word	0x0a687361
30006598:	0000000d 	.word	0x0000000d
3000659c:	205d775b 	.word	0x205d775b
300065a0:	74697257 	.word	0x74697257
300065a4:	6f6e2065 	.word	0x6f6e2065
300065a8:	6c662072 	.word	0x6c662072
300065ac:	0a687361 	.word	0x0a687361
300065b0:	0000000d 	.word	0x0000000d
300065b4:	205d725b 	.word	0x205d725b
300065b8:	64616552 	.word	0x64616552
300065bc:	726f6e20 	.word	0x726f6e20
300065c0:	616c6620 	.word	0x616c6620
300065c4:	0d0a6873 	.word	0x0d0a6873
300065c8:	00000000 	.word	0x00000000
300065cc:	205d715b 	.word	0x205d715b
300065d0:	74697571 	.word	0x74697571
300065d4:	00000d0a 	.word	0x00000d0a
300065d8:	65746e45 	.word	0x65746e45
300065dc:	65732072 	.word	0x65732072
300065e0:	7463656c 	.word	0x7463656c
300065e4:	3a6e6f69 	.word	0x3a6e6f69
300065e8:	00000020 	.word	0x00000020
300065ec:	0d0a6325 	.word	0x0d0a6325
300065f0:	00000000 	.word	0x00000000
300065f4:	72737063 	.word	0x72737063
300065f8:	2578303d 	.word	0x2578303d
300065fc:	0d783830 	.word	0x0d783830
30006600:	0d73250a 	.word	0x0d73250a
30006604:	0000000a 	.word	0x0000000a
30006608:	76697773 	.word	0x76697773
3000660c:	615f6c61 	.word	0x615f6c61
30006610:	3d726464 	.word	0x3d726464
30006614:	78257830 	.word	0x78257830
30006618:	00000a0d 	.word	0x00000a0d
3000661c:	3d6c6176 	.word	0x3d6c6176
30006620:	30257830 	.word	0x30257830
30006624:	0a0d7838 	.word	0x0a0d7838
30006628:	00000000 	.word	0x00000000

3000662c <hex_tab>:
3000662c:	33323130 	.word	0x33323130
30006630:	37363534 	.word	0x37363534
30006634:	42413938 	.word	0x42413938
30006638:	46454443 	.word	0x46454443
3000663c:	00007830 	.word	0x00007830
30006640:	746f6f62 	.word	0x746f6f62
30006644:	64616f6c 	.word	0x64616f6c
30006648:	2e2e7265 	.word	0x2e2e7265
3000664c:	6f6f622e 	.word	0x6f6f622e
30006650:	00000d74 	.word	0x00000d74
30006654:	e589ade7 	.word	0xe589ade7
30006658:	afe885be 	.word	0xafe885be
3000665c:	ba87e5bb 	.word	0xba87e5bb
30006660:	e68586e5 	.word	0xe68586e5
30006664:	2e2eb8a0 	.word	0x2e2eb8a0
30006668:	00000d2e 	.word	0x00000d2e
3000666c:	e5bbafe8 	.word	0xe5bbafe8
30006670:	86e5ba87 	.word	0x86e5ba87
30006674:	b8a0e685 	.word	0xb8a0e685
30006678:	e59088e6 	.word	0xe59088e6
3000667c:	bcef9f8a 	.word	0xbcef9f8a
30006680:	81bcef81 	.word	0x81bcef81
30006684:	ade70a0d 	.word	0xade70a0d
30006688:	85bee589 	.word	0x85bee589
3000668c:	e8b3b7e8 	.word	0xe8b3b7e8
30006690:	89e6acbd 	.word	0x89e6acbd
30006694:	8ca1e8a7 	.word	0x8ca1e8a7
30006698:	2e2e2e2e 	.word	0x2e2e2e2e
3000669c:	000d2e2e 	.word	0x000d2e2e
300066a0:	6e696f6e 	.word	0x6e696f6e
300066a4:	64727469 	.word	0x64727469
300066a8:	6f6f7220 	.word	0x6f6f7220
300066ac:	642f3d74 	.word	0x642f3d74
300066b0:	6d2f7665 	.word	0x6d2f7665
300066b4:	6c626474 	.word	0x6c626474
300066b8:	336b636f 	.word	0x336b636f
300066bc:	696e6920 	.word	0x696e6920
300066c0:	6c2f3d74 	.word	0x6c2f3d74
300066c4:	78756e69 	.word	0x78756e69
300066c8:	63206372 	.word	0x63206372
300066cc:	6f736e6f 	.word	0x6f736e6f
300066d0:	743d656c 	.word	0x743d656c
300066d4:	41537974 	.word	0x41537974
300066d8:	312c3043 	.word	0x312c3043
300066dc:	30323531 	.word	0x30323531
300066e0:	00000030 	.word	0x00000030
Disassembly of section .data:

300066e4 <_ctype>:
300066e4:	08080808 	.word	0x08080808
300066e8:	08080808 	.word	0x08080808
300066ec:	28282808 	.word	0x28282808
300066f0:	08082828 	.word	0x08082828
300066f4:	08080808 	.word	0x08080808
300066f8:	08080808 	.word	0x08080808
300066fc:	08080808 	.word	0x08080808
30006700:	08080808 	.word	0x08080808
30006704:	101010a0 	.word	0x101010a0
30006708:	10101010 	.word	0x10101010
3000670c:	10101010 	.word	0x10101010
30006710:	10101010 	.word	0x10101010
30006714:	04040404 	.word	0x04040404
30006718:	04040404 	.word	0x04040404
3000671c:	10100404 	.word	0x10100404
30006720:	10101010 	.word	0x10101010
30006724:	41414110 	.word	0x41414110
30006728:	01414141 	.word	0x01414141
3000672c:	01010101 	.word	0x01010101
30006730:	01010101 	.word	0x01010101
30006734:	01010101 	.word	0x01010101
30006738:	01010101 	.word	0x01010101
3000673c:	10010101 	.word	0x10010101
30006740:	10101010 	.word	0x10101010
30006744:	42424210 	.word	0x42424210
30006748:	02424242 	.word	0x02424242
3000674c:	02020202 	.word	0x02020202
30006750:	02020202 	.word	0x02020202
30006754:	02020202 	.word	0x02020202
30006758:	02020202 	.word	0x02020202
3000675c:	10020202 	.word	0x10020202
30006760:	08101010 	.word	0x08101010
	...
30006784:	101010a0 	.word	0x101010a0
30006788:	10101010 	.word	0x10101010
3000678c:	10101010 	.word	0x10101010
30006790:	10101010 	.word	0x10101010
30006794:	10101010 	.word	0x10101010
30006798:	10101010 	.word	0x10101010
3000679c:	10101010 	.word	0x10101010
300067a0:	10101010 	.word	0x10101010
300067a4:	01010101 	.word	0x01010101
300067a8:	01010101 	.word	0x01010101
300067ac:	01010101 	.word	0x01010101
300067b0:	01010101 	.word	0x01010101
300067b4:	01010101 	.word	0x01010101
300067b8:	10010101 	.word	0x10010101
300067bc:	01010101 	.word	0x01010101
300067c0:	02010101 	.word	0x02010101
300067c4:	02020202 	.word	0x02020202
300067c8:	02020202 	.word	0x02020202
300067cc:	02020202 	.word	0x02020202
300067d0:	02020202 	.word	0x02020202
300067d4:	02020202 	.word	0x02020202
300067d8:	10020202 	.word	0x10020202
300067dc:	02020202 	.word	0x02020202
300067e0:	02020202 	.word	0x02020202

300067e4 <hex_tab>:
300067e4:	33323130 	.word	0x33323130
300067e8:	37363534 	.word	0x37363534
300067ec:	62613938 	.word	0x62613938
300067f0:	66656463 	.word	0x66656463

300067f4 <s3c2440_lcd_controller>:
300067f4:	300053f8 	.word	0x300053f8
300067f8:	3000283c 	.word	0x3000283c
300067fc:	30002ad4 	.word	0x30002ad4
30006800:	30002b34 	.word	0x30002b34

30006804 <lcd_4_3_params>:
30006804:	30005424 	.word	0x30005424
	...
30006818:	00000001 	.word	0x00000001
3000681c:	00000001 	.word	0x00000001
30006820:	0000000a 	.word	0x0000000a
30006824:	00000002 	.word	0x00000002
30006828:	00000002 	.word	0x00000002
3000682c:	00000029 	.word	0x00000029
30006830:	00000002 	.word	0x00000002
30006834:	00000002 	.word	0x00000002
30006838:	00000009 	.word	0x00000009
3000683c:	000001e0 	.word	0x000001e0
30006840:	00000110 	.word	0x00000110
30006844:	00000020 	.word	0x00000020
30006848:	33c00000 	.word	0x33c00000

3000684c <irq_fun>:
3000684c:	30004a58 	.word	0x30004a58
30006850:	30004a44 	.word	0x30004a44
30006854:	300049e0 	.word	0x300049e0
30006858:	300049cc 	.word	0x300049cc
3000685c:	300049b8 	.word	0x300049b8
30006860:	300048d4 	.word	0x300048d4
30006864:	300048c0 	.word	0x300048c0
30006868:	300048ac 	.word	0x300048ac
3000686c:	30004898 	.word	0x30004898
30006870:	30004884 	.word	0x30004884
30006874:	30004830 	.word	0x30004830
30006878:	30004804 	.word	0x30004804
3000687c:	300047f0 	.word	0x300047f0
30006880:	300047dc 	.word	0x300047dc
30006884:	300047c8 	.word	0x300047c8
30006888:	300047b4 	.word	0x300047b4
3000688c:	300047a0 	.word	0x300047a0
30006890:	3000478c 	.word	0x3000478c
30006894:	30004778 	.word	0x30004778
30006898:	30004764 	.word	0x30004764
3000689c:	30004750 	.word	0x30004750
300068a0:	3000473c 	.word	0x3000473c
300068a4:	30004728 	.word	0x30004728
300068a8:	30004714 	.word	0x30004714
300068ac:	30004700 	.word	0x30004700
300068b0:	300046ec 	.word	0x300046ec
300068b4:	300046d8 	.word	0x300046d8
300068b8:	300046c4 	.word	0x300046c4
300068bc:	300046b0 	.word	0x300046b0
300068c0:	3000469c 	.word	0x3000469c
300068c4:	30004688 	.word	0x30004688
300068c8:	30004674 	.word	0x30004674
Disassembly of section .bss:

300068cc <bss_start>:
300068cc:	00000000 	.word	0x00000000

300068d0 <xres>:
300068d0:	00000000 	.word	0x00000000

300068d4 <yres>:
300068d4:	00000000 	.word	0x00000000

300068d8 <bpp>:
300068d8:	00000000 	.word	0x00000000

300068dc <fb_base>:
300068dc:	00000000 	.word	0x00000000

300068e0 <xres>:
300068e0:	00000000 	.word	0x00000000

300068e4 <yres>:
300068e4:	00000000 	.word	0x00000000

300068e8 <bpp>:
300068e8:	00000000 	.word	0x00000000

300068ec <p_array_lcd_controller>:
	...

30006914 <g_p_lcd_controller_selected>:
30006914:	00000000 	.word	0x00000000

30006918 <p_array_lcd>:
	...

30006940 <g_p_lcd_selected>:
30006940:	00000000 	.word	0x00000000

30006944 <init_clk>:
30006944:	00000000 	.word	0x00000000

30006948 <ms_time>:
30006948:	00000000 	.word	0x00000000

3000694c <ledon.1329>:
3000694c:	00000000 	.word	0x00000000

30006950 <params>:
30006950:	00000000 	.word	0x00000000

30006954 <key>:
	...
Disassembly of section .ARM.attributes:

00000000 <.ARM.attributes>:
   0:	00002541 	andeq	r2, r0, r1, asr #10
   4:	61656100 	cmnvs	r5, r0, lsl #2
   8:	01006962 	tsteq	r0, r2, ror #18
   c:	0000001b 	andeq	r0, r0, fp, lsl r0
  10:	00543405 	subseq	r3, r4, r5, lsl #8
  14:	01080206 	tsteq	r8, r6, lsl #4
  18:	01140412 	tsteq	r4, r2, lsl r4
  1c:	03170115 	tsteq	r7, #1073741829	; 0x40000005
  20:	01190118 	tsteq	r9, r8, lsl r1
  24:	Address 0x00000024 is out of bounds.

Disassembly of section .comment:

00000000 <.comment>:
   0:	43434700 	movtmi	r4, #14080	; 0x3700
   4:	5328203a 	teqpl	r8, #58	; 0x3a
   8:	6372756f 	cmnvs	r2, #465567744	; 0x1bc00000
   c:	20797265 	rsbscs	r7, r9, r5, ror #4
  10:	202b2b47 	eorcs	r2, fp, r7, asr #22
  14:	6574694c 	ldrbvs	r6, [r4, #-2380]!
  18:	30303220 	eorscc	r3, r0, r0, lsr #4
  1c:	2d337138 	ldfcss	f7, [r3, #-224]!
  20:	20293237 	eorcs	r3, r9, r7, lsr r2
  24:	2e332e34 	mrccs	14, 1, r2, cr3, cr4, {1}
  28:	47000032 	smladxmi	r0, r2, r0, r0
  2c:	203a4343 	eorscs	r4, sl, r3, asr #6
  30:	756f5328 	strbvc	r5, [pc, #-808]!	; fffffd10 <end+0xcfff938c>
  34:	72656372 	rsbvc	r6, r5, #-939524095	; 0xc8000001
  38:	2b472079 	blcs	11c8224 <code_start-0x2ee37ddc>
  3c:	694c202b 	stmdbvs	ip, {r0, r1, r3, r5, sp}^
  40:	32206574 	eorcc	r6, r0, #486539264	; 0x1d000000
  44:	71383030 	teqvc	r8, r0, lsr r0
  48:	32372d33 	eorscc	r2, r7, #3264	; 0xcc0
  4c:	2e342029 	cdpcs	0, 3, cr2, cr4, cr9, {1}
  50:	00322e33 	eorseq	r2, r2, r3, lsr lr
  54:	43434700 	movtmi	r4, #14080	; 0x3700
  58:	5328203a 	teqpl	r8, #58	; 0x3a
  5c:	6372756f 	cmnvs	r2, #465567744	; 0x1bc00000
  60:	20797265 	rsbscs	r7, r9, r5, ror #4
  64:	202b2b47 	eorcs	r2, fp, r7, asr #22
  68:	6574694c 	ldrbvs	r6, [r4, #-2380]!
  6c:	30303220 	eorscc	r3, r0, r0, lsr #4
  70:	2d337138 	ldfcss	f7, [r3, #-224]!
  74:	20293237 	eorcs	r3, r9, r7, lsr r2
  78:	2e332e34 	mrccs	14, 1, r2, cr3, cr4, {1}
  7c:	47000032 	smladxmi	r0, r2, r0, r0
  80:	203a4343 	eorscs	r4, sl, r3, asr #6
  84:	756f5328 	strbvc	r5, [pc, #-808]!	; fffffd64 <end+0xcfff93e0>
  88:	72656372 	rsbvc	r6, r5, #-939524095	; 0xc8000001
  8c:	2b472079 	blcs	11c8278 <code_start-0x2ee37d88>
  90:	694c202b 	stmdbvs	ip, {r0, r1, r3, r5, sp}^
  94:	32206574 	eorcc	r6, r0, #486539264	; 0x1d000000
  98:	71383030 	teqvc	r8, r0, lsr r0
  9c:	32372d33 	eorscc	r2, r7, #3264	; 0xcc0
  a0:	2e342029 	cdpcs	0, 3, cr2, cr4, cr9, {1}
  a4:	00322e33 	eorseq	r2, r2, r3, lsr lr
  a8:	43434700 	movtmi	r4, #14080	; 0x3700
  ac:	5328203a 	teqpl	r8, #58	; 0x3a
  b0:	6372756f 	cmnvs	r2, #465567744	; 0x1bc00000
  b4:	20797265 	rsbscs	r7, r9, r5, ror #4
  b8:	202b2b47 	eorcs	r2, fp, r7, asr #22
  bc:	6574694c 	ldrbvs	r6, [r4, #-2380]!
  c0:	30303220 	eorscc	r3, r0, r0, lsr #4
  c4:	2d337138 	ldfcss	f7, [r3, #-224]!
  c8:	20293237 	eorcs	r3, r9, r7, lsr r2
  cc:	2e332e34 	mrccs	14, 1, r2, cr3, cr4, {1}
  d0:	47000032 	smladxmi	r0, r2, r0, r0
  d4:	203a4343 	eorscs	r4, sl, r3, asr #6
  d8:	756f5328 	strbvc	r5, [pc, #-808]!	; fffffdb8 <end+0xcfff9434>
  dc:	72656372 	rsbvc	r6, r5, #-939524095	; 0xc8000001
  e0:	2b472079 	blcs	11c82cc <code_start-0x2ee37d34>
  e4:	694c202b 	stmdbvs	ip, {r0, r1, r3, r5, sp}^
  e8:	32206574 	eorcc	r6, r0, #486539264	; 0x1d000000
  ec:	71383030 	teqvc	r8, r0, lsr r0
  f0:	32372d33 	eorscc	r2, r7, #3264	; 0xcc0
  f4:	2e342029 	cdpcs	0, 3, cr2, cr4, cr9, {1}
  f8:	00322e33 	eorseq	r2, r2, r3, lsr lr
  fc:	43434700 	movtmi	r4, #14080	; 0x3700
 100:	5328203a 	teqpl	r8, #58	; 0x3a
 104:	6372756f 	cmnvs	r2, #465567744	; 0x1bc00000
 108:	20797265 	rsbscs	r7, r9, r5, ror #4
 10c:	202b2b47 	eorcs	r2, fp, r7, asr #22
 110:	6574694c 	ldrbvs	r6, [r4, #-2380]!
 114:	30303220 	eorscc	r3, r0, r0, lsr #4
 118:	2d337138 	ldfcss	f7, [r3, #-224]!
 11c:	20293237 	eorcs	r3, r9, r7, lsr r2
 120:	2e332e34 	mrccs	14, 1, r2, cr3, cr4, {1}
 124:	47000032 	smladxmi	r0, r2, r0, r0
 128:	203a4343 	eorscs	r4, sl, r3, asr #6
 12c:	756f5328 	strbvc	r5, [pc, #-808]!	; fffffe0c <end+0xcfff9488>
 130:	72656372 	rsbvc	r6, r5, #-939524095	; 0xc8000001
 134:	2b472079 	blcs	11c8320 <code_start-0x2ee37ce0>
 138:	694c202b 	stmdbvs	ip, {r0, r1, r3, r5, sp}^
 13c:	32206574 	eorcc	r6, r0, #486539264	; 0x1d000000
 140:	71383030 	teqvc	r8, r0, lsr r0
 144:	32372d33 	eorscc	r2, r7, #3264	; 0xcc0
 148:	2e342029 	cdpcs	0, 3, cr2, cr4, cr9, {1}
 14c:	00322e33 	eorseq	r2, r2, r3, lsr lr
 150:	43434700 	movtmi	r4, #14080	; 0x3700
 154:	5328203a 	teqpl	r8, #58	; 0x3a
 158:	6372756f 	cmnvs	r2, #465567744	; 0x1bc00000
 15c:	20797265 	rsbscs	r7, r9, r5, ror #4
 160:	202b2b47 	eorcs	r2, fp, r7, asr #22
 164:	6574694c 	ldrbvs	r6, [r4, #-2380]!
 168:	30303220 	eorscc	r3, r0, r0, lsr #4
 16c:	2d337138 	ldfcss	f7, [r3, #-224]!
 170:	20293237 	eorcs	r3, r9, r7, lsr r2
 174:	2e332e34 	mrccs	14, 1, r2, cr3, cr4, {1}
 178:	47000032 	smladxmi	r0, r2, r0, r0
 17c:	203a4343 	eorscs	r4, sl, r3, asr #6
 180:	756f5328 	strbvc	r5, [pc, #-808]!	; fffffe60 <end+0xcfff94dc>
 184:	72656372 	rsbvc	r6, r5, #-939524095	; 0xc8000001
 188:	2b472079 	blcs	11c8374 <code_start-0x2ee37c8c>
 18c:	694c202b 	stmdbvs	ip, {r0, r1, r3, r5, sp}^
 190:	32206574 	eorcc	r6, r0, #486539264	; 0x1d000000
 194:	71383030 	teqvc	r8, r0, lsr r0
 198:	32372d33 	eorscc	r2, r7, #3264	; 0xcc0
 19c:	2e342029 	cdpcs	0, 3, cr2, cr4, cr9, {1}
 1a0:	00322e33 	eorseq	r2, r2, r3, lsr lr
 1a4:	43434700 	movtmi	r4, #14080	; 0x3700
 1a8:	5328203a 	teqpl	r8, #58	; 0x3a
 1ac:	6372756f 	cmnvs	r2, #465567744	; 0x1bc00000
 1b0:	20797265 	rsbscs	r7, r9, r5, ror #4
 1b4:	202b2b47 	eorcs	r2, fp, r7, asr #22
 1b8:	6574694c 	ldrbvs	r6, [r4, #-2380]!
 1bc:	30303220 	eorscc	r3, r0, r0, lsr #4
 1c0:	2d337138 	ldfcss	f7, [r3, #-224]!
 1c4:	20293237 	eorcs	r3, r9, r7, lsr r2
 1c8:	2e332e34 	mrccs	14, 1, r2, cr3, cr4, {1}
 1cc:	47000032 	smladxmi	r0, r2, r0, r0
 1d0:	203a4343 	eorscs	r4, sl, r3, asr #6
 1d4:	756f5328 	strbvc	r5, [pc, #-808]!	; fffffeb4 <end+0xcfff9530>
 1d8:	72656372 	rsbvc	r6, r5, #-939524095	; 0xc8000001
 1dc:	2b472079 	blcs	11c83c8 <code_start-0x2ee37c38>
 1e0:	694c202b 	stmdbvs	ip, {r0, r1, r3, r5, sp}^
 1e4:	32206574 	eorcc	r6, r0, #486539264	; 0x1d000000
 1e8:	71383030 	teqvc	r8, r0, lsr r0
 1ec:	32372d33 	eorscc	r2, r7, #3264	; 0xcc0
 1f0:	2e342029 	cdpcs	0, 3, cr2, cr4, cr9, {1}
 1f4:	00322e33 	eorseq	r2, r2, r3, lsr lr
 1f8:	43434700 	movtmi	r4, #14080	; 0x3700
 1fc:	5328203a 	teqpl	r8, #58	; 0x3a
 200:	6372756f 	cmnvs	r2, #465567744	; 0x1bc00000
 204:	20797265 	rsbscs	r7, r9, r5, ror #4
 208:	202b2b47 	eorcs	r2, fp, r7, asr #22
 20c:	6574694c 	ldrbvs	r6, [r4, #-2380]!
 210:	30303220 	eorscc	r3, r0, r0, lsr #4
 214:	2d337138 	ldfcss	f7, [r3, #-224]!
 218:	20293237 	eorcs	r3, r9, r7, lsr r2
 21c:	2e332e34 	mrccs	14, 1, r2, cr3, cr4, {1}
 220:	47000032 	smladxmi	r0, r2, r0, r0
 224:	203a4343 	eorscs	r4, sl, r3, asr #6
 228:	756f5328 	strbvc	r5, [pc, #-808]!	; ffffff08 <end+0xcfff9584>
 22c:	72656372 	rsbvc	r6, r5, #-939524095	; 0xc8000001
 230:	2b472079 	blcs	11c841c <code_start-0x2ee37be4>
 234:	694c202b 	stmdbvs	ip, {r0, r1, r3, r5, sp}^
 238:	32206574 	eorcc	r6, r0, #486539264	; 0x1d000000
 23c:	71383030 	teqvc	r8, r0, lsr r0
 240:	32372d33 	eorscc	r2, r7, #3264	; 0xcc0
 244:	2e342029 	cdpcs	0, 3, cr2, cr4, cr9, {1}
 248:	00322e33 	eorseq	r2, r2, r3, lsr lr
 24c:	43434700 	movtmi	r4, #14080	; 0x3700
 250:	5328203a 	teqpl	r8, #58	; 0x3a
 254:	6372756f 	cmnvs	r2, #465567744	; 0x1bc00000
 258:	20797265 	rsbscs	r7, r9, r5, ror #4
 25c:	202b2b47 	eorcs	r2, fp, r7, asr #22
 260:	6574694c 	ldrbvs	r6, [r4, #-2380]!
 264:	30303220 	eorscc	r3, r0, r0, lsr #4
 268:	2d337138 	ldfcss	f7, [r3, #-224]!
 26c:	20293237 	eorcs	r3, r9, r7, lsr r2
 270:	2e332e34 	mrccs	14, 1, r2, cr3, cr4, {1}
 274:	47000032 	smladxmi	r0, r2, r0, r0
 278:	203a4343 	eorscs	r4, sl, r3, asr #6
 27c:	756f5328 	strbvc	r5, [pc, #-808]!	; ffffff5c <end+0xcfff95d8>
 280:	72656372 	rsbvc	r6, r5, #-939524095	; 0xc8000001
 284:	2b472079 	blcs	11c8470 <code_start-0x2ee37b90>
 288:	694c202b 	stmdbvs	ip, {r0, r1, r3, r5, sp}^
 28c:	32206574 	eorcc	r6, r0, #486539264	; 0x1d000000
 290:	71383030 	teqvc	r8, r0, lsr r0
 294:	32372d33 	eorscc	r2, r7, #3264	; 0xcc0
 298:	2e342029 	cdpcs	0, 3, cr2, cr4, cr9, {1}
 29c:	00322e33 	eorseq	r2, r2, r3, lsr lr
 2a0:	43434700 	movtmi	r4, #14080	; 0x3700
 2a4:	5328203a 	teqpl	r8, #58	; 0x3a
 2a8:	6372756f 	cmnvs	r2, #465567744	; 0x1bc00000
 2ac:	20797265 	rsbscs	r7, r9, r5, ror #4
 2b0:	202b2b47 	eorcs	r2, fp, r7, asr #22
 2b4:	6574694c 	ldrbvs	r6, [r4, #-2380]!
 2b8:	30303220 	eorscc	r3, r0, r0, lsr #4
 2bc:	2d337138 	ldfcss	f7, [r3, #-224]!
 2c0:	20293237 	eorcs	r3, r9, r7, lsr r2
 2c4:	2e332e34 	mrccs	14, 1, r2, cr3, cr4, {1}
 2c8:	47000032 	smladxmi	r0, r2, r0, r0
 2cc:	203a4343 	eorscs	r4, sl, r3, asr #6
 2d0:	756f5328 	strbvc	r5, [pc, #-808]!	; ffffffb0 <end+0xcfff962c>
 2d4:	72656372 	rsbvc	r6, r5, #-939524095	; 0xc8000001
 2d8:	2b472079 	blcs	11c84c4 <code_start-0x2ee37b3c>
 2dc:	694c202b 	stmdbvs	ip, {r0, r1, r3, r5, sp}^
 2e0:	32206574 	eorcc	r6, r0, #486539264	; 0x1d000000
 2e4:	71383030 	teqvc	r8, r0, lsr r0
 2e8:	32372d33 	eorscc	r2, r7, #3264	; 0xcc0
 2ec:	2e342029 	cdpcs	0, 3, cr2, cr4, cr9, {1}
 2f0:	00322e33 	eorseq	r2, r2, r3, lsr lr
 2f4:	43434700 	movtmi	r4, #14080	; 0x3700
 2f8:	5328203a 	teqpl	r8, #58	; 0x3a
 2fc:	6372756f 	cmnvs	r2, #465567744	; 0x1bc00000
 300:	20797265 	rsbscs	r7, r9, r5, ror #4
 304:	202b2b47 	eorcs	r2, fp, r7, asr #22
 308:	6574694c 	ldrbvs	r6, [r4, #-2380]!
 30c:	30303220 	eorscc	r3, r0, r0, lsr #4
 310:	2d337138 	ldfcss	f7, [r3, #-224]!
 314:	20293237 	eorcs	r3, r9, r7, lsr r2
 318:	2e332e34 	mrccs	14, 1, r2, cr3, cr4, {1}
 31c:	47000032 	smladxmi	r0, r2, r0, r0
 320:	203a4343 	eorscs	r4, sl, r3, asr #6
 324:	756f5328 	strbvc	r5, [pc, #-808]!	; 4 <code_start-0x2ffffffc>
 328:	72656372 	rsbvc	r6, r5, #-939524095	; 0xc8000001
 32c:	2b472079 	blcs	11c8518 <code_start-0x2ee37ae8>
 330:	694c202b 	stmdbvs	ip, {r0, r1, r3, r5, sp}^
 334:	32206574 	eorcc	r6, r0, #486539264	; 0x1d000000
 338:	71383030 	teqvc	r8, r0, lsr r0
 33c:	32372d33 	eorscc	r2, r7, #3264	; 0xcc0
 340:	2e342029 	cdpcs	0, 3, cr2, cr4, cr9, {1}
 344:	00322e33 	eorseq	r2, r2, r3, lsr lr
 348:	43434700 	movtmi	r4, #14080	; 0x3700
 34c:	5328203a 	teqpl	r8, #58	; 0x3a
 350:	6372756f 	cmnvs	r2, #465567744	; 0x1bc00000
 354:	20797265 	rsbscs	r7, r9, r5, ror #4
 358:	202b2b47 	eorcs	r2, fp, r7, asr #22
 35c:	6574694c 	ldrbvs	r6, [r4, #-2380]!
 360:	30303220 	eorscc	r3, r0, r0, lsr #4
 364:	2d337138 	ldfcss	f7, [r3, #-224]!
 368:	20293237 	eorcs	r3, r9, r7, lsr r2
 36c:	2e332e34 	mrccs	14, 1, r2, cr3, cr4, {1}
 370:	47000032 	smladxmi	r0, r2, r0, r0
 374:	203a4343 	eorscs	r4, sl, r3, asr #6
 378:	756f5328 	strbvc	r5, [pc, #-808]!	; 58 <code_start-0x2fffffa8>
 37c:	72656372 	rsbvc	r6, r5, #-939524095	; 0xc8000001
 380:	2b472079 	blcs	11c856c <code_start-0x2ee37a94>
 384:	694c202b 	stmdbvs	ip, {r0, r1, r3, r5, sp}^
 388:	32206574 	eorcc	r6, r0, #486539264	; 0x1d000000
 38c:	71383030 	teqvc	r8, r0, lsr r0
 390:	32372d33 	eorscc	r2, r7, #3264	; 0xcc0
 394:	2e342029 	cdpcs	0, 3, cr2, cr4, cr9, {1}
 398:	00322e33 	eorseq	r2, r2, r3, lsr lr
 39c:	43434700 	movtmi	r4, #14080	; 0x3700
 3a0:	5328203a 	teqpl	r8, #58	; 0x3a
 3a4:	6372756f 	cmnvs	r2, #465567744	; 0x1bc00000
 3a8:	20797265 	rsbscs	r7, r9, r5, ror #4
 3ac:	202b2b47 	eorcs	r2, fp, r7, asr #22
 3b0:	6574694c 	ldrbvs	r6, [r4, #-2380]!
 3b4:	30303220 	eorscc	r3, r0, r0, lsr #4
 3b8:	2d337138 	ldfcss	f7, [r3, #-224]!
 3bc:	20293237 	eorcs	r3, r9, r7, lsr r2
 3c0:	2e332e34 	mrccs	14, 1, r2, cr3, cr4, {1}
 3c4:	47000032 	smladxmi	r0, r2, r0, r0
 3c8:	203a4343 	eorscs	r4, sl, r3, asr #6
 3cc:	756f5328 	strbvc	r5, [pc, #-808]!	; ac <code_start-0x2fffff54>
 3d0:	72656372 	rsbvc	r6, r5, #-939524095	; 0xc8000001
 3d4:	2b472079 	blcs	11c85c0 <code_start-0x2ee37a40>
 3d8:	694c202b 	stmdbvs	ip, {r0, r1, r3, r5, sp}^
 3dc:	32206574 	eorcc	r6, r0, #486539264	; 0x1d000000
 3e0:	71383030 	teqvc	r8, r0, lsr r0
 3e4:	32372d33 	eorscc	r2, r7, #3264	; 0xcc0
 3e8:	2e342029 	cdpcs	0, 3, cr2, cr4, cr9, {1}
 3ec:	00322e33 	eorseq	r2, r2, r3, lsr lr
 3f0:	43434700 	movtmi	r4, #14080	; 0x3700
 3f4:	5328203a 	teqpl	r8, #58	; 0x3a
 3f8:	6372756f 	cmnvs	r2, #465567744	; 0x1bc00000
 3fc:	20797265 	rsbscs	r7, r9, r5, ror #4
 400:	202b2b47 	eorcs	r2, fp, r7, asr #22
 404:	6574694c 	ldrbvs	r6, [r4, #-2380]!
 408:	30303220 	eorscc	r3, r0, r0, lsr #4
 40c:	2d337138 	ldfcss	f7, [r3, #-224]!
 410:	20293237 	eorcs	r3, r9, r7, lsr r2
 414:	2e332e34 	mrccs	14, 1, r2, cr3, cr4, {1}
 418:	47000032 	smladxmi	r0, r2, r0, r0
 41c:	203a4343 	eorscs	r4, sl, r3, asr #6
 420:	756f5328 	strbvc	r5, [pc, #-808]!	; 100 <code_start-0x2fffff00>
 424:	72656372 	rsbvc	r6, r5, #-939524095	; 0xc8000001
 428:	2b472079 	blcs	11c8614 <code_start-0x2ee379ec>
 42c:	694c202b 	stmdbvs	ip, {r0, r1, r3, r5, sp}^
 430:	32206574 	eorcc	r6, r0, #486539264	; 0x1d000000
 434:	71383030 	teqvc	r8, r0, lsr r0
 438:	32372d33 	eorscc	r2, r7, #3264	; 0xcc0
 43c:	2e342029 	cdpcs	0, 3, cr2, cr4, cr9, {1}
 440:	00322e33 	eorseq	r2, r2, r3, lsr lr
 444:	43434700 	movtmi	r4, #14080	; 0x3700
 448:	5328203a 	teqpl	r8, #58	; 0x3a
 44c:	6372756f 	cmnvs	r2, #465567744	; 0x1bc00000
 450:	20797265 	rsbscs	r7, r9, r5, ror #4
 454:	202b2b47 	eorcs	r2, fp, r7, asr #22
 458:	6574694c 	ldrbvs	r6, [r4, #-2380]!
 45c:	30303220 	eorscc	r3, r0, r0, lsr #4
 460:	2d337138 	ldfcss	f7, [r3, #-224]!
 464:	20293237 	eorcs	r3, r9, r7, lsr r2
 468:	2e332e34 	mrccs	14, 1, r2, cr3, cr4, {1}
 46c:	Address 0x0000046c is out of bounds.

Disassembly of section .debug_frame:

00000000 <.debug_frame>:
   0:	0000000c 	.word	0x0000000c
   4:	ffffffff 	.word	0xffffffff
   8:	7c010001 	.word	0x7c010001
   c:	000d0c0e 	.word	0x000d0c0e
  10:	0000000c 	.word	0x0000000c
  14:	00000000 	.word	0x00000000
  18:	30005060 	.word	0x30005060
  1c:	000000f4 	.word	0x000000f4
